	.file	"/home/atena/workspace_ethernet_new_replicated/_module_ethernet/src/full/_mii_filter.xc"

	.inline_definition delay_seconds
	.inline_definition delay_milliseconds
	.inline_definition delay_microseconds
	.inline_definition _mii_packet_get_length
	.inline_definition _mii_packet_set_length
	.inline_definition _mii_packet_get_timestamp
	.inline_definition _mii_packet_set_timestamp
	.inline_definition _mii_packet_get_filter_result
	.inline_definition _mii_packet_set_filter_result
	.inline_definition _mii_packet_get_src_port
	.inline_definition _mii_packet_set_src_port
	.inline_definition _mii_packet_get_timestamp_id
	.inline_definition _mii_packet_set_timestamp_id
	.inline_definition _mii_packet_get_stage
	.inline_definition _mii_packet_set_stage
	.inline_definition _mii_packet_get_tcount
	.inline_definition _mii_packet_set_tcount
	.inline_definition _mii_packet_get_crc
	.inline_definition _mii_packet_set_crc
	.inline_definition _mii_packet_get_forwarding
	.inline_definition _mii_packet_set_forwarding
	.inline_definition _mii_packet_get_data_ptr
	.inline_definition _mii_packet_set_data_word
	.inline_definition _mii_packet_get_data_word
	.inline_definition _mii_packet_set_data
	.inline_definition _mii_packet_set_data_short
	.inline_definition _mii_packet_set_data_byte
	.set usage.anon.0,0
	.set usage.anon.1,0
	.set usage.anon.2,0
	.set usage.anon.3,0
	.set usage.anon.4,0
	.set usage.anon.5,0
	.set usage.anon.6,0
	.set usage.anon.7,0
	.set usage.anon.8,0
	.set usage.anon.9,0
	.set usage.anon.10,0
	.set usage.anon.11,0
	.set usage.anon.12,0
	.set usage.anon.13,0
	.set usage.anon.14,0
	.set usage.anon.15,0
	.set usage.anon.16,0
	.set usage.anon.17,0
	.set usage.anon.18,0
	.set usage.anon.19,0
	.set usage.anon.20,0
	.set usage.anon.21,0
	.set usage.anon.22,0
	.set usage.anon.23,0
	.set usage.anon.24,0
	.set usage.anon.25,0
	.set usage.anon.26,0
	.set usage.anon.27,0
	.set usage.anon.28,0
	.set usage.anon.29,0
	.set usage.anon.30,0
	.globread _ethernet_get_filter_counts,usage.anon.30,"/home/atena/workspace_ethernet_new_replicated/_module_ethernet/src/full/_mii_filter.xc:38: error: previously used here"
	.globread _ethernet_get_filter_counts,usage.anon.29,"/home/atena/workspace_ethernet_new_replicated/_module_ethernet/src/full/_mii_filter.xc:37: error: previously used here"
	.globread _ethernet_get_filter_counts,usage.anon.28,"/home/atena/workspace_ethernet_new_replicated/_module_ethernet/src/full/_mii_filter.xc:36: error: previously used here"
	.globread _ethernet_get_filter_counts,usage.anon.27,"/home/atena/workspace_ethernet_new_replicated/_module_ethernet/src/full/_mii_filter.xc:35: error: previously used here"
	.globwrite _ethernet_filter,usage.anon.30,"/home/atena/workspace_ethernet_new_replicated/_module_ethernet/src/full/_mii_filter.xc:104: error: previously used here"
	.globwrite _ethernet_filter,usage.anon.29,"/home/atena/workspace_ethernet_new_replicated/_module_ethernet/src/full/_mii_filter.xc:95: error: previously used here"
	.globwrite _ethernet_filter,usage.anon.28,"/home/atena/workspace_ethernet_new_replicated/_module_ethernet/src/full/_mii_filter.xc:128: error: previously used here"
	.call _mac_custom_filter_coerce1,mac_custom_filter
	.call _ethernet_filter,usage.anon.8
	.call _ethernet_filter,usage.anon.3
	.call _ethernet_filter,usage.anon.17
	.call _ethernet_filter,usage.anon.14
	.call _ethernet_filter,usage.anon.10
	.call _ethernet_filter,_mii_packet_get_data
	.call _ethernet_filter,_mac_custom_filter_coerce
	.call usage.anon.2,delay_ticks_longlong
	.call usage.anon.1,delay_ticks_longlong
	.call usage.anon.0,delay_ticks_longlong
	.set usage.anon.0.locnoside, 1
	.set usage.anon.1.locnoside, 1
	.set usage.anon.2.locnoside, 1
	.set usage.anon.3.locnoside, 1
	.set usage.anon.4.locnoside, 1
	.set usage.anon.5.locnoside, 1
	.set usage.anon.6.locnoside, 1
	.set usage.anon.7.locnoside, 1
	.set usage.anon.8.locnoside, 1
	.set usage.anon.9.locnoside, 1
	.set usage.anon.10.locnoside, 1
	.set usage.anon.11.locnoside, 1
	.set usage.anon.12.locnoside, 1
	.set usage.anon.13.locnoside, 1
	.set usage.anon.14.locnoside, 1
	.set usage.anon.15.locnoside, 1
	.set usage.anon.16.locnoside, 1
	.set usage.anon.17.locnoside, 1
	.set usage.anon.18.locnoside, 1
	.set usage.anon.19.locnoside, 1
	.set usage.anon.20.locnoside, 1
	.set usage.anon.21.locnoside, 1
	.set usage.anon.22.locnoside, 1
	.set usage.anon.23.locnoside, 1
	.set usage.anon.24.locnoside, 1
	.set usage.anon.25.locnoside, 1
	.set usage.anon.26.locnoside, 1
	.set usage.anon.0.locnochandec, 1
	.set usage.anon.1.locnochandec, 1
	.set usage.anon.2.locnochandec, 1
	.set usage.anon.3.locnochandec, 1
	.set usage.anon.4.locnochandec, 1
	.set usage.anon.5.locnochandec, 1
	.set usage.anon.6.locnochandec, 1
	.set usage.anon.7.locnochandec, 1
	.set usage.anon.8.locnochandec, 1
	.set usage.anon.9.locnochandec, 1
	.set usage.anon.10.locnochandec, 1
	.set usage.anon.11.locnochandec, 1
	.set usage.anon.12.locnochandec, 1
	.set usage.anon.13.locnochandec, 1
	.set usage.anon.14.locnochandec, 1
	.set usage.anon.15.locnochandec, 1
	.set usage.anon.16.locnochandec, 1
	.set usage.anon.17.locnochandec, 1
	.set usage.anon.18.locnochandec, 1
	.set usage.anon.19.locnochandec, 1
	.set usage.anon.20.locnochandec, 1
	.set usage.anon.21.locnochandec, 1
	.set usage.anon.22.locnochandec, 1
	.set usage.anon.23.locnochandec, 1
	.set usage.anon.24.locnochandec, 1
	.set usage.anon.25.locnochandec, 1
	.set usage.anon.26.locnochandec, 1
	.set _ethernet_get_filter_counts.locnochandec, 1
	.set _ethernet_filter.locnochandec, 1
	.set _mac_custom_filter_coerce1.locnochandec, 1
	.set usage.anon.0.locnoglobalaccess, 1
	.set usage.anon.1.locnoglobalaccess, 1
	.set usage.anon.2.locnoglobalaccess, 1
	.set usage.anon.3.locnoglobalaccess, 1
	.set usage.anon.4.locnoglobalaccess, 1
	.set usage.anon.5.locnoglobalaccess, 1
	.set usage.anon.6.locnoglobalaccess, 1
	.set usage.anon.7.locnoglobalaccess, 1
	.set usage.anon.8.locnoglobalaccess, 1
	.set usage.anon.9.locnoglobalaccess, 1
	.set usage.anon.10.locnoglobalaccess, 1
	.set usage.anon.11.locnoglobalaccess, 1
	.set usage.anon.12.locnoglobalaccess, 1
	.set usage.anon.13.locnoglobalaccess, 1
	.set usage.anon.14.locnoglobalaccess, 1
	.set usage.anon.15.locnoglobalaccess, 1
	.set usage.anon.16.locnoglobalaccess, 1
	.set usage.anon.17.locnoglobalaccess, 1
	.set usage.anon.18.locnoglobalaccess, 1
	.set usage.anon.19.locnoglobalaccess, 1
	.set usage.anon.20.locnoglobalaccess, 1
	.set usage.anon.21.locnoglobalaccess, 1
	.set usage.anon.22.locnoglobalaccess, 1
	.set usage.anon.23.locnoglobalaccess, 1
	.set usage.anon.24.locnoglobalaccess, 1
	.set usage.anon.25.locnoglobalaccess, 1
	.set usage.anon.26.locnoglobalaccess, 1
	.set _mac_custom_filter_coerce1.locnoglobalaccess, 1
	.set usage.anon.0.locnointerfaceaccess, 1
	.set usage.anon.1.locnointerfaceaccess, 1
	.set usage.anon.2.locnointerfaceaccess, 1
	.set usage.anon.3.locnointerfaceaccess, 1
	.set usage.anon.4.locnointerfaceaccess, 1
	.set usage.anon.5.locnointerfaceaccess, 1
	.set usage.anon.6.locnointerfaceaccess, 1
	.set usage.anon.7.locnointerfaceaccess, 1
	.set usage.anon.8.locnointerfaceaccess, 1
	.set usage.anon.9.locnointerfaceaccess, 1
	.set usage.anon.10.locnointerfaceaccess, 1
	.set usage.anon.11.locnointerfaceaccess, 1
	.set usage.anon.12.locnointerfaceaccess, 1
	.set usage.anon.13.locnointerfaceaccess, 1
	.set usage.anon.14.locnointerfaceaccess, 1
	.set usage.anon.15.locnointerfaceaccess, 1
	.set usage.anon.16.locnointerfaceaccess, 1
	.set usage.anon.17.locnointerfaceaccess, 1
	.set usage.anon.18.locnointerfaceaccess, 1
	.set usage.anon.19.locnointerfaceaccess, 1
	.set usage.anon.20.locnointerfaceaccess, 1
	.set usage.anon.21.locnointerfaceaccess, 1
	.set usage.anon.22.locnointerfaceaccess, 1
	.set usage.anon.23.locnointerfaceaccess, 1
	.set usage.anon.24.locnointerfaceaccess, 1
	.set usage.anon.25.locnointerfaceaccess, 1
	.set usage.anon.26.locnointerfaceaccess, 1
	.set _ethernet_get_filter_counts.locnointerfaceaccess, 1
	.set _ethernet_filter.locnointerfaceaccess, 1
	.set _mac_custom_filter_coerce1.locnointerfaceaccess, 1
	.set usage.anon.0.locnonotificationselect, 1
	.set usage.anon.1.locnonotificationselect, 1
	.set usage.anon.2.locnonotificationselect, 1
	.set usage.anon.3.locnonotificationselect, 1
	.set usage.anon.4.locnonotificationselect, 1
	.set usage.anon.5.locnonotificationselect, 1
	.set usage.anon.6.locnonotificationselect, 1
	.set usage.anon.7.locnonotificationselect, 1
	.set usage.anon.8.locnonotificationselect, 1
	.set usage.anon.9.locnonotificationselect, 1
	.set usage.anon.10.locnonotificationselect, 1
	.set usage.anon.11.locnonotificationselect, 1
	.set usage.anon.12.locnonotificationselect, 1
	.set usage.anon.13.locnonotificationselect, 1
	.set usage.anon.14.locnonotificationselect, 1
	.set usage.anon.15.locnonotificationselect, 1
	.set usage.anon.16.locnonotificationselect, 1
	.set usage.anon.17.locnonotificationselect, 1
	.set usage.anon.18.locnonotificationselect, 1
	.set usage.anon.19.locnonotificationselect, 1
	.set usage.anon.20.locnonotificationselect, 1
	.set usage.anon.21.locnonotificationselect, 1
	.set usage.anon.22.locnonotificationselect, 1
	.set usage.anon.23.locnonotificationselect, 1
	.set usage.anon.24.locnonotificationselect, 1
	.set usage.anon.25.locnonotificationselect, 1
	.set usage.anon.26.locnonotificationselect, 1
	.set _ethernet_get_filter_counts.locnonotificationselect, 1
	.set _ethernet_filter.locnonotificationselect, 1
	.set _mac_custom_filter_coerce1.locnonotificationselect, 1


	.file	1 "/home/atena/workspace_ethernet_new_replicated/_module_ethernet/src/full/_mii_filter.xc"
	.file	2 "/home/atena/workspace_ethernet_new_replicated/app_ethernet_demo/.build_lite/timer.h"
	.file	3 "/home/atena/workspace_ethernet_new_replicated/app_ethernet_demo/.build_lite/_mii_full.h"
	.text
.Ltext_begin:
	.section	.dp.data,"awd",@progbits
	.text
	.cc_top _ethernet_filter.function
	.section	.cp.rodata.cst4,"aMc",@progbits,4
	.cc_top .LCPI0_0.data
	.align	4
.LCPI0_0:
	.long	3988292384
	.cc_bottom .LCPI0_0.data
	.text
	.globl	_ethernet_filter
	.align	4
	.type	_ethernet_filter,@function
_ethernet_filter:
.Ltmp8:
	.cfi_startproc
.Lfunc_begin0:
	.loc	1 44 0
.Lxtalabel0:
	entsp 11
.Ltmp9:
	.cfi_def_cfa_offset 44
.Ltmp10:
	.cfi_offset 15, 0
	.loc	1 44 0 prologue_end
.Ltmp11:
	stw r4, sp[10]
.Ltmp12:
	.cfi_offset 4, -4
	stw r5, sp[9]
.Ltmp13:
	.cfi_offset 5, -8
	stw r6, sp[8]
.Ltmp14:
	.cfi_offset 6, -12
	stw r7, sp[7]
.Ltmp15:
	.cfi_offset 7, -16
	stw r8, sp[6]
.Ltmp16:
	.cfi_offset 8, -20
	stw r9, sp[5]
.Ltmp17:
	.cfi_offset 9, -24
	stw r10, sp[4]
.Ltmp18:
	.cfi_offset 10, -28
	stw r1, sp[3]
	.loc	1 48 0
.Ltmp19:
	ldc r10, 0
	ld8u r3, r0[r10]
	mkmsk r2, 1
	ld8u r2, r0[r2]
	shl r2, r2, 8
	or r3, r2, r3
	ldc r2, 2
	ld8u r2, r0[r2]
	shl r2, r2, 16
	or r3, r3, r2
	mkmsk r2, 2
	ld8u r2, r0[r2]
	shl r2, r2, 24
	or r2, r3, r2
	stw r2, sp[2]
	ldc r2, 4
	.loc	1 49 0
	ld8u r3, r0[r2]
	ldc r2, 5
	ld8u r0, r0[r2]
.Ltmp20:
	shl r0, r0, 8
	or r0, r0, r3
	.loc	1 114 0
.Ltmp21:
	shl r0, r0, 16
.Ltmp22:
	.loc	1 56 0
	stw r0, sp[1]
	ldw r4, r1[0]
.Ltmp23:
	ldw r5, cp[.LCPI0_0]
.Ltmp24:
.LBB0_1:
.Lxtalabel1:
	.loc	1 53 0
	clre
	ldap r11, .Ltmp25
	.loc	1 56 0
.Ltmp26:
	setv res[r4], r11
	mov r11, r10
	setev res[r4], r11
	eeu res[r4]
	.loc	1 140 0
	
	.xtabranch .LBB0_2
waiteu
.Ltmp27:
.Ltmp25:
.LBB0_2:
.Lxtalabel2:
	.loc	1 56 0
	get r11, ed
	mov r8, r11
	zext r8, 16
.Ltmp28:
	ldw r0, sp[3]
	ldw r0, r0[r8]
	.loc	1 56 0
.Lxta.endpoint_labels0:
	in r7, res[r0]
.Ltmp29:
	.loc	1 58 0
	bf r7, .LBB0_1
.Ltmp30:
.Lxtalabel3:
	mov r9, r10
	.loc	3 135 0
.Ltmp31:
	#APP
	ldw r6,r7[0]
	#NO_APP
.Ltmp32:
	.loc	3 142 0
	#APP
	ldw r10,r7[7]
	#NO_APP
.Ltmp33:
	.loc	1 68 0
	shr r0, r6, 2
	add r1, r0, 1
	.loc	1 68 0
	mov r0, r7
.Lxta.call_labels0:
	bl _mii_packet_get_data
.Ltmp34:
	.loc	1 70 0
	mov r1, r6
	zext r1, 2
.Ltmp35:
	.loc	1 72 0
	eq r2, r1, 1
	bt r2, .LBB0_8
.Ltmp36:
.Lxtalabel4:
	eq r2, r1, 2
	bt r2, .LBB0_10
.Lxtalabel5:
	eq r1, r1, 3
	bt r1, .LBB0_9
.LBB0_6:
.Lxtalabel6:
.Ltmp37:
	.loc	3 138 0
	#APP
	stw r8, r7[3]
	#NO_APP
	ldc r0, 60
.Ltmp38:
	.loc	1 92 0
	lss r0, r6, r0
	bf r0, .LBB0_11
.Ltmp39:
.Lxtalabel7:
	.loc	1 95 0
	ldw r0, dp[_ethernet_filtered_by_length]
	add r0, r0, 1
	stw r0, dp[_ethernet_filtered_by_length]
	mov r10, r9
	.loc	3 137 0
.Ltmp40:
	#APP
	stw r10, r7[2]
	#NO_APP
	mkmsk r0, 1
.Ltmp41:
	.loc	3 140 0
	#APP
	stw r0, r7[5]
	#NO_APP
.Ltmp42:
	.loc	1 53 0
	clre
	ldap r11, .Ltmp25
	.loc	1 56 0
.Ltmp43:
	setv res[r4], r11
	mov r11, r10
	setev res[r4], r11
	eeu res[r4]
	.loc	1 140 0
	
	.xtabranch .LBB0_2
waiteu
.LBB0_8:
.Lxtalabel8:
.Ltmp44:
	.loc	1 77 0
	crc8 r10, r0, r0, r5
.Ltmp45:
	bu .LBB0_6
.Ltmp46:
.LBB0_9:
.Lxtalabel9:
	.loc	1 84 0
	crc8 r10, r0, r0, r5
.LBB0_10:
.Lxtalabel10:
	.loc	1 80 0
	crc8 r10, r0, r0, r5
	.loc	1 81 0
	crc8 r10, r0, r0, r5
	bu .LBB0_6
.LBB0_11:
.Lxtalabel11:
.Ltmp47:
	mkmsk r0, 32
	.loc	1 101 0
	eq r0, r10, r0
	mkmsk r6, 1
	bt r0, .LBB0_13
.Lxtalabel12:
	.loc	1 104 0
	ldw r0, dp[_ethernet_filtered_by_bad_crc]
	add r0, r0, 1
	stw r0, dp[_ethernet_filtered_by_bad_crc]
	mov r10, r9
	.loc	3 137 0
.Ltmp48:
	#APP
	stw r10, r7[2]
	#NO_APP
.Ltmp49:
	.loc	3 140 0
	#APP
	stw r6, r7[5]
	#NO_APP
.Ltmp50:
	.loc	1 53 0
	clre
	ldap r11, .Ltmp25
	.loc	1 56 0
.Ltmp51:
	setv res[r4], r11
	mov r11, r10
	setev res[r4], r11
	eeu res[r4]
	.loc	1 140 0
	
	.xtabranch .LBB0_2
waiteu
.LBB0_13:
.Lxtalabel13:
	.loc	1 113 0
.Ltmp52:
	mov r0, r7
	mov r10, r9
	mov r1, r10
.Lxta.call_labels1:
	bl _mii_packet_get_data
	mov r8, r0
	.loc	1 114 0
.Ltmp53:
	mov r0, r7
	mov r1, r10
.Lxta.call_labels2:
	bl _mii_packet_get_data
	.loc	1 114 0
	ldw r1, sp[2]
	eq r0, r0, r1
.Ltmp54:
	.loc	1 113 0
	zext r8, 1
.Ltmp55:
	.loc	1 114 0
	bf r0, .LBB0_15
	mov r0, r7
	mov r1, r6
	bl _mii_packet_get_data
	shl r0, r0, 16
	ldw r1, sp[1]
	eq r0, r0, r1
.Ltmp56:
	bt r0, .LBB0_16
.LBB0_15:
.Ltmp57:
	.loc	1 124 0
	bf r8, .LBB0_18
.Ltmp58:
.LBB0_16:
.Lxtalabel14:
	.loc	1 126 0
	mov r0, r7
.Lxta.call_labels3:
	bl _mac_custom_filter_coerce
.Ltmp59:
	.loc	1 128 0
	bf r0, .LBB0_19
.Ltmp60:
.Lxtalabel15:
	.loc	3 137 0
	#APP
	stw r0, r7[2]
	#NO_APP
.Ltmp61:
	.loc	3 140 0
	#APP
	stw r6, r7[5]
	#NO_APP
.Ltmp62:
	.loc	1 53 0
	clre
	ldap r11, .Ltmp25
	.loc	1 56 0
.Ltmp63:
	setv res[r4], r11
	mov r11, r10
	setev res[r4], r11
	eeu res[r4]
	.loc	1 140 0
	
	.xtabranch .LBB0_2
waiteu
.Ltmp64:
.LBB0_18:
.Lxtalabel16:
	.loc	1 133 0
	ldw r0, dp[_ethernet_filtered_by_user_filter]
	add r0, r0, 1
	stw r0, dp[_ethernet_filtered_by_user_filter]
.Ltmp65:
	.loc	3 137 0
	#APP
	stw r10, r7[2]
	#NO_APP
.Ltmp66:
	.loc	3 140 0
	#APP
	stw r6, r7[5]
	#NO_APP
.Ltmp67:
	.loc	1 53 0
	clre
	ldap r11, .Ltmp25
	.loc	1 56 0
.Ltmp68:
	setv res[r4], r11
	mov r11, r10
	setev res[r4], r11
	eeu res[r4]
	.loc	1 140 0
	
	.xtabranch .LBB0_2
waiteu
.Ltmp69:
.LBB0_19:
.Lxtalabel17:
	.loc	1 128 0
	ldw r0, dp[_ethernet_filtered_by_user_filter]
	add r0, r0, 1
	stw r0, dp[_ethernet_filtered_by_user_filter]
.Ltmp70:
	.loc	3 137 0
	#APP
	stw r10, r7[2]
	#NO_APP
.Ltmp71:
	.loc	3 140 0
	#APP
	stw r6, r7[5]
	#NO_APP
.Ltmp72:
	.loc	1 53 0
	clre
	ldap r11, .Ltmp25
	.loc	1 56 0
.Ltmp73:
	setv res[r4], r11
	mov r11, r10
	setev res[r4], r11
	eeu res[r4]
	.loc	1 140 0
	
	.xtabranch .LBB0_2
waiteu
.Ltmp74:
.Ltmp75:
	.size	_ethernet_filter, .Ltmp75-_ethernet_filter
.Lfunc_end0:
.Ltmp76:
	.cfi_endproc
.Leh_func_end0:

	.align	4
	.cc_bottom _ethernet_filter.function
	.set	_ethernet_filter.nstackwords,((_mii_packet_get_data.nstackwords $M _mac_custom_filter_coerce.nstackwords) + 11)
	.globl	_ethernet_filter.nstackwords
	.set	_ethernet_filter.maxcores,_mac_custom_filter_coerce.maxcores $M _mii_packet_get_data.maxcores $M 1
	.globl	_ethernet_filter.maxcores
	.set	_ethernet_filter.maxtimers,_mac_custom_filter_coerce.maxtimers $M _mii_packet_get_data.maxtimers $M 0
	.globl	_ethernet_filter.maxtimers
	.set	_ethernet_filter.maxchanends,_mac_custom_filter_coerce.maxchanends $M _mii_packet_get_data.maxchanends $M 0
	.globl	_ethernet_filter.maxchanends
	.cc_top _ethernet_get_filter_counts.function
	.globl	_ethernet_get_filter_counts
	.align	4
	.type	_ethernet_get_filter_counts,@function
_ethernet_get_filter_counts:
.Ltmp77:
	.cfi_startproc
.Lfunc_begin1:
	.loc	1 34 0
.Lxtalabel18:
	ldc r11, 0
	.loc	1 35 0 prologue_end
.Ltmp78:
	stw r11, r0[0]
	.loc	1 36 0
	ldw r0, dp[_ethernet_filtered_by_user_filter]
.Ltmp79:
	stw r0, r1[0]
	.loc	1 37 0
	ldw r0, dp[_ethernet_filtered_by_length]
	stw r0, r2[0]
	.loc	1 38 0
	ldw r0, dp[_ethernet_filtered_by_bad_crc]
	stw r0, r3[0]
	retsp 0
.Ltmp80:
.Ltmp81:
	.size	_ethernet_get_filter_counts, .Ltmp81-_ethernet_get_filter_counts
.Lfunc_end1:
.Ltmp82:
	.cfi_endproc
.Leh_func_end1:

	.align	4
	.cc_bottom _ethernet_get_filter_counts.function
	.set	_ethernet_get_filter_counts.nstackwords,0
	.globl	_ethernet_get_filter_counts.nstackwords
	.set	_ethernet_get_filter_counts.maxcores,1
	.globl	_ethernet_get_filter_counts.maxcores
	.set	_ethernet_get_filter_counts.maxtimers,0
	.globl	_ethernet_get_filter_counts.maxtimers
	.set	_ethernet_get_filter_counts.maxchanends,0
	.globl	_ethernet_get_filter_counts.maxchanends
	.cc_top _mac_custom_filter_coerce1.function
	.globl	_mac_custom_filter_coerce1
	.align	4
	.type	_mac_custom_filter_coerce1,@function
_mac_custom_filter_coerce1:
.Ltmp84:
	.cfi_startproc
.Lfunc_begin2:
	.loc	1 149 0
.Lxtalabel19:
	entsp 1
.Ltmp85:
	.cfi_def_cfa_offset 4
.Ltmp86:
	.cfi_offset 15, 0
	.loc	1 150 0 prologue_end
.Ltmp87:
.Lxta.call_labels4:
	bl mac_custom_filter
.Ltmp88:
	retsp 1
.Ltmp89:
.Ltmp90:
	.size	_mac_custom_filter_coerce1, .Ltmp90-_mac_custom_filter_coerce1
.Lfunc_end2:
.Ltmp91:
	.cfi_endproc
.Leh_func_end2:

	.align	4
	.cc_bottom _mac_custom_filter_coerce1.function
	.set	_mac_custom_filter_coerce1.nstackwords,(mac_custom_filter.nstackwords + 1)
	.globl	_mac_custom_filter_coerce1.nstackwords
	.set	_mac_custom_filter_coerce1.maxcores,mac_custom_filter.maxcores $M 1
	.globl	_mac_custom_filter_coerce1.maxcores
	.set	_mac_custom_filter_coerce1.maxtimers,mac_custom_filter.maxtimers $M 0
	.globl	_mac_custom_filter_coerce1.maxtimers
	.set	_mac_custom_filter_coerce1.maxchanends,mac_custom_filter.maxchanends $M 0
	.globl	_mac_custom_filter_coerce1.maxchanends
	.section	.dp.bss,"awd",@nobits
	.cc_top _ethernet_filtered_by_user_filter.data
	.align	4
	.type	_ethernet_filtered_by_user_filter,@object
	.size _ethernet_filtered_by_user_filter,4
_ethernet_filtered_by_user_filter:
	.long	0
	.cc_bottom _ethernet_filtered_by_user_filter.data
	.cc_top _ethernet_filtered_by_length.data
	.align	4
	.type	_ethernet_filtered_by_length,@object
	.size _ethernet_filtered_by_length,4
_ethernet_filtered_by_length:
	.long	0
	.cc_bottom _ethernet_filtered_by_length.data
	.cc_top _ethernet_filtered_by_bad_crc.data
	.align	4
	.type	_ethernet_filtered_by_bad_crc,@object
	.size _ethernet_filtered_by_bad_crc,4
_ethernet_filtered_by_bad_crc:
	.long	0
	.cc_bottom _ethernet_filtered_by_bad_crc.data
	.cfi_sections .debug_frame
	.text
.Ltext_end:
	.section	.dp.data,"awd",@progbits
.Ldata_end:
	.text
.Lsection_end1:
	.section	.xtacalltable,"",@progbits
.Lentries_start0:
	.long	.Lentries_end1-.Lentries_start0
	.long	0
	.ascii	 "/home/atena/workspace_ethernet_new_replicated/app_ethernet_demo/.build_lite"
	.byte	0
.cc_top cc_0,.Lxta.call_labels0
	.ascii	 "/home/atena/workspace_ethernet_new_replicated/_module_ethernet/src/full/_mii_filter.xc"
	.byte	0
	.long	68
	.long	.Lxta.call_labels0
.cc_bottom cc_0
.cc_top cc_1,.Lxta.call_labels1
	.ascii	 "/home/atena/workspace_ethernet_new_replicated/_module_ethernet/src/full/_mii_filter.xc"
	.byte	0
	.long	113
	.long	.Lxta.call_labels1
.cc_bottom cc_1
.cc_top cc_2,.Lxta.call_labels2
	.ascii	 "/home/atena/workspace_ethernet_new_replicated/_module_ethernet/src/full/_mii_filter.xc"
	.byte	0
	.long	114
	.long	.Lxta.call_labels2
.cc_bottom cc_2
.cc_top cc_3,.Lxta.call_labels3
	.ascii	 "/home/atena/workspace_ethernet_new_replicated/_module_ethernet/src/full/_mii_filter.xc"
	.byte	0
	.long	126
	.long	.Lxta.call_labels3
.cc_bottom cc_3
.cc_top cc_4,.Lxta.call_labels4
	.ascii	 "/home/atena/workspace_ethernet_new_replicated/_module_ethernet/src/full/_mii_filter.xc"
	.byte	0
	.long	150
	.long	.Lxta.call_labels4
.cc_bottom cc_4
.Lentries_end1:
	.section	.xtaendpoint,"",@progbits
.Lentries_start2:
	.long	.Lentries_end3-.Lentries_start2
	.long	1
	.ascii	 "/home/atena/workspace_ethernet_new_replicated/app_ethernet_demo/.build_lite"
	.byte	0
	.ascii	 "rx_packet"
	.byte	0
	.ascii	 "/home/atena/workspace_ethernet_new_replicated/_module_ethernet/src/full/_mii_filter.xc"
	.byte	0
	.long	55
	.long	.Laddr_end1-.Laddr_start0
.Laddr_start0:
.cc_top cc_5,.Lxta.endpoint_labels0
	.long	.Lxta.endpoint_labels0
	.byte	0
.cc_bottom cc_5
.Laddr_end1:
.Lentries_end3:
	.section	.xtaendpointtable,"",@progbits
.Lentries_start4:
	.long	.Lentries_end5-.Lentries_start4
	.long	0
	.ascii	 "/home/atena/workspace_ethernet_new_replicated/app_ethernet_demo/.build_lite"
	.byte	0
.cc_top cc_6,.Lxta.endpoint_labels0
	.ascii	 "/home/atena/workspace_ethernet_new_replicated/_module_ethernet/src/full/_mii_filter.xc"
	.byte	0
	.long	53
	.long	.Lxta.endpoint_labels0
.cc_bottom cc_6
.Lentries_end5:
	.section	.xtalabeltable,"",@progbits
.Lentries_start6:
	.long	.Lentries_end7-.Lentries_start6
	.long	0
	.ascii	 "/home/atena/workspace_ethernet_new_replicated/app_ethernet_demo/.build_lite"
	.byte	0
.cc_top cc_7,.Lxtalabel18
	.ascii	 "/home/atena/workspace_ethernet_new_replicated/_module_ethernet/src/full/_mii_filter.xc"
	.byte	0
	.long	34
	.long	39
	.long	.Lxtalabel18
.cc_bottom cc_7
.cc_top cc_8,.Lxtalabel0
	.ascii	 "/home/atena/workspace_ethernet_new_replicated/_module_ethernet/src/full/_mii_filter.xc"
	.byte	0
	.long	45
	.long	51
	.long	.Lxtalabel0
.cc_bottom cc_8
.cc_top cc_9,.Lxtalabel15
	.ascii	 "/home/atena/workspace_ethernet_new_replicated/_module_ethernet/src/full/_mii_filter.xc"
	.byte	0
	.long	52
	.long	56
	.long	.Lxtalabel15
.cc_bottom cc_9
.cc_top cc_10,.Lxtalabel16
	.ascii	 "/home/atena/workspace_ethernet_new_replicated/_module_ethernet/src/full/_mii_filter.xc"
	.byte	0
	.long	52
	.long	56
	.long	.Lxtalabel16
.cc_bottom cc_10
.cc_top cc_11,.Lxtalabel17
	.ascii	 "/home/atena/workspace_ethernet_new_replicated/_module_ethernet/src/full/_mii_filter.xc"
	.byte	0
	.long	52
	.long	56
	.long	.Lxtalabel17
.cc_bottom cc_11
.cc_top cc_12,.Lxtalabel12
	.ascii	 "/home/atena/workspace_ethernet_new_replicated/_module_ethernet/src/full/_mii_filter.xc"
	.byte	0
	.long	52
	.long	56
	.long	.Lxtalabel12
.cc_bottom cc_12
.cc_top cc_13,.Lxtalabel7
	.ascii	 "/home/atena/workspace_ethernet_new_replicated/_module_ethernet/src/full/_mii_filter.xc"
	.byte	0
	.long	52
	.long	56
	.long	.Lxtalabel7
.cc_bottom cc_13
.cc_top cc_14,.Lxtalabel1
	.ascii	 "/home/atena/workspace_ethernet_new_replicated/_module_ethernet/src/full/_mii_filter.xc"
	.byte	0
	.long	52
	.long	56
	.long	.Lxtalabel1
.cc_bottom cc_14
.cc_top cc_15,.Lxtalabel2
	.ascii	 "/home/atena/workspace_ethernet_new_replicated/_module_ethernet/src/full/_mii_filter.xc"
	.byte	0
	.long	57
	.long	58
	.long	.Lxtalabel2
.cc_bottom cc_15
.cc_top cc_16,.Lxtalabel5
	.ascii	 "/home/atena/workspace_ethernet_new_replicated/_module_ethernet/src/full/_mii_filter.xc"
	.byte	0
	.long	59
	.long	74
	.long	.Lxtalabel5
.cc_bottom cc_16
.cc_top cc_17,.Lxtalabel4
	.ascii	 "/home/atena/workspace_ethernet_new_replicated/_module_ethernet/src/full/_mii_filter.xc"
	.byte	0
	.long	59
	.long	74
	.long	.Lxtalabel4
.cc_bottom cc_17
.cc_top cc_18,.Lxtalabel3
	.ascii	 "/home/atena/workspace_ethernet_new_replicated/_module_ethernet/src/full/_mii_filter.xc"
	.byte	0
	.long	59
	.long	74
	.long	.Lxtalabel3
.cc_bottom cc_18
.cc_top cc_19,.Lxtalabel5
	.ascii	 "/home/atena/workspace_ethernet_new_replicated/_module_ethernet/src/full/_mii_filter.xc"
	.byte	0
	.long	75
	.long	76
	.long	.Lxtalabel5
.cc_bottom cc_19
.cc_top cc_20,.Lxtalabel4
	.ascii	 "/home/atena/workspace_ethernet_new_replicated/_module_ethernet/src/full/_mii_filter.xc"
	.byte	0
	.long	75
	.long	76
	.long	.Lxtalabel4
.cc_bottom cc_20
.cc_top cc_21,.Lxtalabel3
	.ascii	 "/home/atena/workspace_ethernet_new_replicated/_module_ethernet/src/full/_mii_filter.xc"
	.byte	0
	.long	75
	.long	76
	.long	.Lxtalabel3
.cc_bottom cc_21
.cc_top cc_22,.Lxtalabel8
	.ascii	 "/home/atena/workspace_ethernet_new_replicated/_module_ethernet/src/full/_mii_filter.xc"
	.byte	0
	.long	77
	.long	79
	.long	.Lxtalabel8
.cc_bottom cc_22
.cc_top cc_23,.Lxtalabel10
	.ascii	 "/home/atena/workspace_ethernet_new_replicated/_module_ethernet/src/full/_mii_filter.xc"
	.byte	0
	.long	80
	.long	83
	.long	.Lxtalabel10
.cc_bottom cc_23
.cc_top cc_24,.Lxtalabel9
	.ascii	 "/home/atena/workspace_ethernet_new_replicated/_module_ethernet/src/full/_mii_filter.xc"
	.byte	0
	.long	84
	.long	88
	.long	.Lxtalabel9
.cc_bottom cc_24
.cc_top cc_25,.Lxtalabel6
	.ascii	 "/home/atena/workspace_ethernet_new_replicated/_module_ethernet/src/full/_mii_filter.xc"
	.byte	0
	.long	89
	.long	92
	.long	.Lxtalabel6
.cc_bottom cc_25
.cc_top cc_26,.Lxtalabel7
	.ascii	 "/home/atena/workspace_ethernet_new_replicated/_module_ethernet/src/full/_mii_filter.xc"
	.byte	0
	.long	93
	.long	99
	.long	.Lxtalabel7
.cc_bottom cc_26
.cc_top cc_27,.Lxtalabel11
	.ascii	 "/home/atena/workspace_ethernet_new_replicated/_module_ethernet/src/full/_mii_filter.xc"
	.byte	0
	.long	100
	.long	101
	.long	.Lxtalabel11
.cc_bottom cc_27
.cc_top cc_28,.Lxtalabel12
	.ascii	 "/home/atena/workspace_ethernet_new_replicated/_module_ethernet/src/full/_mii_filter.xc"
	.byte	0
	.long	102
	.long	109
	.long	.Lxtalabel12
.cc_bottom cc_28
.cc_top cc_29,.Lxtalabel13
	.ascii	 "/home/atena/workspace_ethernet_new_replicated/_module_ethernet/src/full/_mii_filter.xc"
	.byte	0
	.long	110
	.long	116
	.long	.Lxtalabel13
.cc_bottom cc_29
.cc_top cc_30,.Lxtalabel13
	.ascii	 "/home/atena/workspace_ethernet_new_replicated/_module_ethernet/src/full/_mii_filter.xc"
	.byte	0
	.long	124
	.long	124
	.long	.Lxtalabel13
.cc_bottom cc_30
.cc_top cc_31,.Lxtalabel14
	.ascii	 "/home/atena/workspace_ethernet_new_replicated/_module_ethernet/src/full/_mii_filter.xc"
	.byte	0
	.long	125
	.long	128
	.long	.Lxtalabel14
.cc_bottom cc_31
.cc_top cc_32,.Lxtalabel16
	.ascii	 "/home/atena/workspace_ethernet_new_replicated/_module_ethernet/src/full/_mii_filter.xc"
	.byte	0
	.long	132
	.long	135
	.long	.Lxtalabel16
.cc_bottom cc_32
.cc_top cc_33,.Lxtalabel15
	.ascii	 "/home/atena/workspace_ethernet_new_replicated/_module_ethernet/src/full/_mii_filter.xc"
	.byte	0
	.long	136
	.long	138
	.long	.Lxtalabel15
.cc_bottom cc_33
.cc_top cc_34,.Lxtalabel16
	.ascii	 "/home/atena/workspace_ethernet_new_replicated/_module_ethernet/src/full/_mii_filter.xc"
	.byte	0
	.long	136
	.long	138
	.long	.Lxtalabel16
.cc_bottom cc_34
.cc_top cc_35,.Lxtalabel17
	.ascii	 "/home/atena/workspace_ethernet_new_replicated/_module_ethernet/src/full/_mii_filter.xc"
	.byte	0
	.long	136
	.long	138
	.long	.Lxtalabel17
.cc_bottom cc_35
.cc_top cc_36,.Lxtalabel19
	.ascii	 "/home/atena/workspace_ethernet_new_replicated/_module_ethernet/src/full/_mii_filter.xc"
	.byte	0
	.long	149
	.long	151
	.long	.Lxtalabel19
.cc_bottom cc_36
.Lentries_end7:
