	.file	"/home/atena/workspace_ethernet_new_replicated/_module_ethernet_dual/src/full/_mii_wrappers.c"

.set _ethernet_rx_server_wr.locnoside, 1

.set _ethernet_rx_server_wr.locnochandec, 1

.set _ethernet_rx_server_wr.locnoglobalaccess, 1

.set _ethernet_rx_server_wr.locnointerfaceaccess, 1

.set _ethernet_rx_server_wr.locnonotificationselect, 1

.set _ethernet_tx_server_wr.locnoside, 1

.set _ethernet_tx_server_wr.locnochandec, 1

.set _ethernet_tx_server_wr.locnoglobalaccess, 1

.set _ethernet_tx_server_wr.locnointerfaceaccess, 1

.set _ethernet_tx_server_wr.locnonotificationselect, 1

.set _mii_tx_pins_wr.locnoside, 1

.set _mii_tx_pins_wr.locnochandec, 1

.set _mii_tx_pins_wr.locnoglobalaccess, 1

.set _mii_tx_pins_wr.locnointerfaceaccess, 1

.set _mii_tx_pins_wr.locnonotificationselect, 1

.set _mii_rx_pins_wr.locnoside, 1

.set _mii_rx_pins_wr.locnochandec, 1

.set _mii_rx_pins_wr.locnoglobalaccess, 1

.set _mii_rx_pins_wr.locnointerfaceaccess, 1

.set _mii_rx_pins_wr.locnonotificationselect, 1

.set _init_mii_mem.locnoside, 1

.set _init_mii_mem.locnochandec, 1

.set _init_mii_mem.locnoglobalaccess, 1

.set _init_mii_mem.locnointerfaceaccess, 1

.set _init_mii_mem.locnonotificationselect, 1


	.file	1 "/home/atena/workspace_ethernet_new_replicated/_module_ethernet_dual/src/full/_mii_wrappers.c"
	.file	2 "/home/atena/workspace_ethernet_new_replicated/module_locks/src/hwlock.h"
	.file	3 "/home/atena/workspace_ethernet_new_replicated/_module_ethernet_dual/src/full/_mii_queue.h"
	.file	4 "/home/atena/workspace_ethernet_new_replicated/_module_ethernet_dual/src/full/_mii_full.h"
	.file	5 "/home/atena/workspace_ethernet_new_replicated/_module_ethernet_dual/src/full/_mii_malloc.h"
	.text
.Ltext_begin:
	.section	.dp.data,"awd",@progbits
	.text
	.cc_top _ethernet_rx_server_wr.function
	.globl	_ethernet_rx_server_wr
	.align	2
	.type	_ethernet_rx_server_wr,@function
_ethernet_rx_server_wr:
.Ltmp1:
	.cfi_startproc
.Lfunc_begin0:
	.loc	1 143 0
	entsp 1
.Ltmp2:
	.cfi_def_cfa_offset 4
.Ltmp3:
	.cfi_offset 15, 0
	mov r2, r1
.Ltmp4:
	mov r1, r0
.Ltmp5:
	.loc	1 144 0 prologue_end
	ldaw r0, dp[_rx_mem_lp]
	bl _ethernet_rx_server
.Ltmp6:
	.loc	1 151 0
	retsp 1
.Ltmp7:
.Ltmp8:
	.size	_ethernet_rx_server_wr, .Ltmp8-_ethernet_rx_server_wr
.Lfunc_end0:
	.file	6 "/home/atena/XMOS/xTIMEcomposer/Community_13.1.0/target/include/xccompat.h"
.Ltmp9:
	.cfi_endproc
.Leh_func_end0:

	.cc_bottom _ethernet_rx_server_wr.function
	.set	_ethernet_rx_server_wr.nstackwords,(_ethernet_rx_server.nstackwords + 1)
	.globl	_ethernet_rx_server_wr.nstackwords
	.set	_ethernet_rx_server_wr.maxcores,_ethernet_rx_server.maxcores $M 1
	.globl	_ethernet_rx_server_wr.maxcores
	.set	_ethernet_rx_server_wr.maxtimers,_ethernet_rx_server.maxtimers $M 0
	.globl	_ethernet_rx_server_wr.maxtimers
	.set	_ethernet_rx_server_wr.maxchanends,_ethernet_rx_server.maxchanends $M 0
	.globl	_ethernet_rx_server_wr.maxchanends
	.cc_top _ethernet_tx_server_wr.function
	.globl	_ethernet_tx_server_wr
	.align	2
	.type	_ethernet_tx_server_wr,@function
_ethernet_tx_server_wr:
.Ltmp11:
	.cfi_startproc
.Lfunc_begin1:
	.loc	1 118 0
	entsp 5
.Ltmp12:
	.cfi_def_cfa_offset 20
.Ltmp13:
	.cfi_offset 15, 0
	mov r11, r0
.Ltmp14:
	ldw r0, sp[7]
	.loc	1 127 0 prologue_end
.Ltmp15:
	stw r0, sp[4]
	ldw r0, sp[6]
	stw r0, sp[3]
	stw r3, sp[2]
	stw r1, sp[1]
	ldaw r0, dp[_tx_mem_lp]
	ldaw r3, dp[_ts_queue]
.Ltmp16:
	mov r1, r2
.Ltmp17:
	mov r2, r3
	mov r3, r11
.Ltmp18:
	bl _ethernet_tx_server
.Ltmp19:
	.loc	1 140 0
	retsp 5
.Ltmp20:
.Ltmp21:
	.size	_ethernet_tx_server_wr, .Ltmp21-_ethernet_tx_server_wr
.Lfunc_end1:
	.file	7 "/home/atena/workspace_ethernet_new_replicated/module_ethernet_smi/src/smi.h"
.Ltmp22:
	.cfi_endproc
.Leh_func_end1:

	.cc_bottom _ethernet_tx_server_wr.function
	.set	_ethernet_tx_server_wr.nstackwords,(_ethernet_tx_server.nstackwords + 5)
	.globl	_ethernet_tx_server_wr.nstackwords
	.set	_ethernet_tx_server_wr.maxcores,_ethernet_tx_server.maxcores $M 1
	.globl	_ethernet_tx_server_wr.maxcores
	.set	_ethernet_tx_server_wr.maxtimers,_ethernet_tx_server.maxtimers $M 0
	.globl	_ethernet_tx_server_wr.maxtimers
	.set	_ethernet_tx_server_wr.maxchanends,_ethernet_tx_server.maxchanends $M 0
	.globl	_ethernet_tx_server_wr.maxchanends
	.cc_top _mii_tx_pins_wr.function
	.globl	_mii_tx_pins_wr
	.align	2
	.type	_mii_tx_pins_wr,@function
_mii_tx_pins_wr:
.Ltmp24:
	.cfi_startproc
.Lfunc_begin2:
	.loc	1 98 0
	entsp 1
.Ltmp25:
	.cfi_def_cfa_offset 4
.Ltmp26:
	.cfi_offset 15, 0
	mov r3, r1
.Ltmp27:
	mov r2, r0
.Ltmp28:
	.loc	1 99 0 prologue_end
	ldaw r0, dp[_tx_mem_lp]
	ldw r0, r0[r3]
	ldc r1, 36
	mul r1, r3, r1
	ldaw r11, dp[_ts_queue]
	add r1, r11, r1
	bl _mii_tx_pins
.Ltmp29:
	.loc	1 110 0
	retsp 1
.Ltmp30:
.Ltmp31:
	.size	_mii_tx_pins_wr, .Ltmp31-_mii_tx_pins_wr
.Lfunc_end2:
.Ltmp32:
	.cfi_endproc
.Leh_func_end2:

	.cc_bottom _mii_tx_pins_wr.function
	.set	_mii_tx_pins_wr.nstackwords,(_mii_tx_pins.nstackwords + 1)
	.globl	_mii_tx_pins_wr.nstackwords
	.set	_mii_tx_pins_wr.maxcores,_mii_tx_pins.maxcores $M 1
	.globl	_mii_tx_pins_wr.maxcores
	.set	_mii_tx_pins_wr.maxtimers,_mii_tx_pins.maxtimers $M 0
	.globl	_mii_tx_pins_wr.maxtimers
	.set	_mii_tx_pins_wr.maxchanends,_mii_tx_pins.maxchanends $M 0
	.globl	_mii_tx_pins_wr.maxchanends
	.cc_top _mii_rx_pins_wr.function
	.globl	_mii_rx_pins_wr
	.align	2
	.type	_mii_rx_pins_wr,@function
_mii_rx_pins_wr:
.Ltmp34:
	.cfi_startproc
.Lfunc_begin3:
	.loc	1 87 0
	entsp 2
.Ltmp35:
	.cfi_def_cfa_offset 8
.Ltmp36:
	.cfi_offset 15, 0
	mov r11, r2
.Ltmp37:
	mov r2, r1
.Ltmp38:
	mov r1, r0
.Ltmp39:
	.loc	1 91 0 prologue_end
	ldaw r0, dp[_rx_mem_lp]
	ldw r0, r0[r11]
	stw r3, sp[1]
	mov r3, r11
.Ltmp40:
	bl _mii_rx_pins
.Ltmp41:
	.loc	1 93 0
	retsp 2
.Ltmp42:
.Ltmp43:
	.size	_mii_rx_pins_wr, .Ltmp43-_mii_rx_pins_wr
.Lfunc_end3:
.Ltmp44:
	.cfi_endproc
.Leh_func_end3:

	.cc_bottom _mii_rx_pins_wr.function
	.set	_mii_rx_pins_wr.nstackwords,(_mii_rx_pins.nstackwords + 2)
	.globl	_mii_rx_pins_wr.nstackwords
	.set	_mii_rx_pins_wr.maxcores,_mii_rx_pins.maxcores $M 1
	.globl	_mii_rx_pins_wr.maxcores
	.set	_mii_rx_pins_wr.maxtimers,_mii_rx_pins.maxtimers $M 0
	.globl	_mii_rx_pins_wr.maxtimers
	.set	_mii_rx_pins_wr.maxchanends,_mii_rx_pins.maxchanends $M 0
	.globl	_mii_rx_pins_wr.maxchanends
	.cc_top _init_mii_mem.function
	.globl	_init_mii_mem
	.align	2
	.type	_init_mii_mem,@function
_init_mii_mem:
.Ltmp47:
	.cfi_startproc
.Lfunc_begin4:
	.loc	1 54 0
	entsp 2
.Ltmp48:
	.cfi_def_cfa_offset 8
.Ltmp49:
	.cfi_offset 15, 0
	.loc	2 32 0 prologue_end
.Ltmp50:
	stw r4, sp[1]
.Ltmp51:
	.cfi_offset 4, -4
	#APP
	getr r0, 0x5
	#NO_APP
.Ltmp52:
	.loc	1 56 0
	stw r0, dp[_ethernet_memory_lock]
	.loc	1 64 0
.Ltmp53:
	ldaw r0, dp[_rx_lp_data]
.Ltmp54:
	stw r0, dp[_rx_mem_lp]
.Ltmp55:
	ldc r4, 4096
	.loc	1 65 0
	mov r1, r4
	bl _mii_init_mempool
	.loc	1 73 0
	ldaw r0, dp[_tx_lp_data]
	stw r0, dp[_tx_mem_lp]
	.loc	1 74 0
	mov r1, r4
	bl _mii_init_mempool
	.loc	1 76 0
	ldaw r0, dp[_ts_queue]
	bl _init_ts_queue
.Ltmp56:
	.loc	1 80 0
	ldw r4, sp[1]
	retsp 2
.Ltmp57:
.Ltmp58:
	.size	_init_mii_mem, .Ltmp58-_init_mii_mem
.Lfunc_end4:
.Ltmp59:
	.cfi_endproc
.Leh_func_end4:

	.cc_bottom _init_mii_mem.function
	.set	_init_mii_mem.nstackwords,((_mii_init_mempool.nstackwords $M _init_ts_queue.nstackwords) + 2)
	.globl	_init_mii_mem.nstackwords
	.set	_init_mii_mem.maxcores,_init_ts_queue.maxcores $M _mii_init_mempool.maxcores $M 1
	.globl	_init_mii_mem.maxcores
	.set	_init_mii_mem.maxtimers,_init_ts_queue.maxtimers $M _mii_init_mempool.maxtimers $M 0
	.globl	_init_mii_mem.maxtimers
	.set	_init_mii_mem.maxchanends,_init_ts_queue.maxchanends $M _mii_init_mempool.maxchanends $M 0
	.globl	_init_mii_mem.maxchanends
	.section	.dp.bss,"awd",@nobits
	.cc_top _ethernet_memory_lock.data
	.globl	_ethernet_memory_lock
	.align	4
	.type	_ethernet_memory_lock,@object
	.size _ethernet_memory_lock,4
_ethernet_memory_lock:
	.long	0
	.cc_bottom _ethernet_memory_lock.data
	.cc_top _rx_mem_lp.data
	.globl	_rx_mem_lp.globound
	.set	_rx_mem_lp.globound,1
	.globl	_rx_mem_lp
	.align	4
	.type	_rx_mem_lp,@object
	.size _rx_mem_lp,4
_rx_mem_lp:
	.space	4
	.cc_bottom _rx_mem_lp.data
	.cc_top _tx_mem_lp.data
	.globl	_tx_mem_lp.globound
	.set	_tx_mem_lp.globound,1
	.globl	_tx_mem_lp
	.align	4
	.type	_tx_mem_lp,@object
	.size _tx_mem_lp,4
_tx_mem_lp:
	.space	4
	.cc_bottom _tx_mem_lp.data
	.cc_top _ts_queue.data
	.globl	_ts_queue.globound
	.set	_ts_queue.globound,1
	.globl	_ts_queue
	.align	4
	.type	_ts_queue,@object
	.size _ts_queue,36
_ts_queue:
	.space	36
	.cc_bottom _ts_queue.data
	.cc_top _rx_lp_data.data
	.globl	_rx_lp_data.globound
	.set	_rx_lp_data.globound,1
	.globl	_rx_lp_data
	.align	4
	.type	_rx_lp_data,@object
	.size _rx_lp_data,4096
_rx_lp_data:
	.space	4096
	.cc_bottom _rx_lp_data.data
	.cc_top _tx_lp_data.data
	.globl	_tx_lp_data.globound
	.set	_tx_lp_data.globound,1
	.globl	_tx_lp_data
	.align	4
	.type	_tx_lp_data,@object
	.size _tx_lp_data,4096
_tx_lp_data:
	.space	4096
	.cc_bottom _tx_lp_data.data
	.cfi_sections .debug_frame
	.text
.Ltext_end:
	.section	.dp.data,"awd",@progbits
.Ldata_end:
	.text
.Lsection_end1: