	.file	"../src/demo.xc"

	.inline_definition delay_seconds
	.inline_definition delay_milliseconds
	.inline_definition delay_microseconds
	.inline_definition _mii_packet_get_length
	.inline_definition _mii_packet_set_length
	.inline_definition _mii_packet_get_timestamp
	.inline_definition _mii_packet_set_timestamp
	.inline_definition _mii_packet_get_filter_result
	.inline_definition _mii_packet_set_filter_result
	.inline_definition _mii_packet_get_src_port
	.inline_definition _mii_packet_set_src_port
	.inline_definition _mii_packet_get_timestamp_id
	.inline_definition _mii_packet_set_timestamp_id
	.inline_definition _mii_packet_get_stage
	.inline_definition _mii_packet_set_stage
	.inline_definition _mii_packet_get_tcount
	.inline_definition _mii_packet_set_tcount
	.inline_definition _mii_packet_get_crc
	.inline_definition _mii_packet_set_crc
	.inline_definition _mii_packet_get_forwarding
	.inline_definition _mii_packet_set_forwarding
	.inline_definition _mii_packet_get_data_ptr
	.inline_definition _mii_packet_set_data_word
	.inline_definition _mii_packet_get_data_word
	.inline_definition _mii_packet_set_data
	.inline_definition _mii_packet_set_data_short
	.inline_definition _mii_packet_set_data_byte
	.inline_definition mii_packet_get_length
	.inline_definition mii_packet_set_length
	.inline_definition mii_packet_get_timestamp
	.inline_definition mii_packet_set_timestamp
	.inline_definition mii_packet_get_filter_result
	.inline_definition mii_packet_set_filter_result
	.inline_definition mii_packet_get_src_port
	.inline_definition mii_packet_set_src_port
	.inline_definition mii_packet_get_timestamp_id
	.inline_definition mii_packet_set_timestamp_id
	.inline_definition mii_packet_get_stage
	.inline_definition mii_packet_set_stage
	.inline_definition mii_packet_get_tcount
	.inline_definition mii_packet_set_tcount
	.inline_definition mii_packet_get_crc
	.inline_definition mii_packet_set_crc
	.inline_definition mii_packet_get_forwarding
	.inline_definition mii_packet_set_forwarding
	.inline_definition mii_packet_get_data_ptr
	.inline_definition mii_packet_set_data_word
	.inline_definition mii_packet_get_data_word
	.inline_definition mii_packet_set_data
	.inline_definition mii_packet_set_data_short
	.inline_definition mii_packet_set_data_byte
	.globalresource 0x200100,"otp_ports_p1.data","tile[0]"
	.globalresource 0x100200,"otp_ports_p1.addr","tile[0]"
	.globalresource 0x100300,"otp_ports_p1.ctrl","tile[0]"
	.globalresource 0x200000,"otp_ports_p2.data","tile[0]"
	.globalresource 0x100000,"otp_ports_p2.addr","tile[0]"
	.globalresource 0x100100,"otp_ports_p2.ctrl","tile[0]"
	.globalresource 0x40300,"smi_p1.p_smi_mdc","tile[0]"
	.globalresource 0x40200,"smi_p2.p_smi_mdc","tile[0]"
	.globalresource 0x306,"mii_p2.clk_mii_rx","tile[0]"
	.globalresource 0x406,"mii_p2.clk_mii_tx","tile[0]"
	.globalresource 0x10800,"mii_p2.p_mii_rxclk","tile[0]"
	.globalresource 0x10600,"mii_p2.p_mii_rxer","tile[0]"
	.globalresource 0x40100,"mii_p2.p_mii_rxd","tile[0]"
	.globalresource 0x10b00,"mii_p2.p_mii_rxdv","tile[0]"
	.globalresource 0x10700,"mii_p2.p_mii_txclk","tile[0]"
	.globalresource 0x10900,"mii_p2.p_mii_txen","tile[0]"
	.globalresource 0x40000,"mii_p2.p_mii_txd","tile[0]"
	.globalresource 0x80200,"mii_p2.p_mii_timing","tile[0]"
	.globalresource 0x10f00,"eth_rst_p1","tile[0]"
	.globalresource 0x10400,"eth_rst_p2","tile[0]"
	.set __main__main_tile_0.savedstate,6
	.globl __main__main_tile_0.savedstate
	.section .netinfo, "", @netinfo
	.int      0x1eaba15c
	main.parinfo.debugstring0:
	.asciiz "# 640 \"../src/demo.xc\""
	main.parinfo.debugstring1:
	.asciiz "# 678 \"../src/demo.xc\""
	.cc_top main.parinfo.cc, main.parinfo
	.globl main.parinfo
	.type main.parinfo, @object
	main.parinfo:
	.int 0x00000004
	.long 0
	.long main.parinfo.debugstring0
	.long main.parinfo.debugstring1
	.int 0x00000001
	.int 0x00000000
	.int $N __main__main_tile_0
	.long tile + 0
	.call __main__main_tile_0,usage.anon.58
	.int 0x00000000
	.cc_bottom main.parinfo.cc
.locl __xcc1_internal_1.info, "p"
__xcc1_internal_1.info:
	.int 0x00200100
	.long tile + 0
.sameresource __xcc1_internal_1, otp_ports_p1, 0
.locl __xcc1_internal_2.info, "o:p"
__xcc1_internal_2.info:
	.int 0x00100200
	.long tile + 0
.sameresource __xcc1_internal_2, otp_ports_p1, 4
.locl __xcc1_internal_3.info, "o:p"
__xcc1_internal_3.info:
	.int 0x00100300
	.long tile + 0
.sameresource __xcc1_internal_3, otp_ports_p1, 8
.locl __xcc1_internal_4.info, "p"
__xcc1_internal_4.info:
	.int 0x00200000
	.long tile + 0
.sameresource __xcc1_internal_4, otp_ports_p2, 0
.locl __xcc1_internal_5.info, "o:p"
__xcc1_internal_5.info:
	.int 0x00100000
	.long tile + 0
.sameresource __xcc1_internal_5, otp_ports_p2, 4
.locl __xcc1_internal_6.info, "o:p"
__xcc1_internal_6.info:
	.int 0x00100100
	.long tile + 0
.sameresource __xcc1_internal_6, otp_ports_p2, 8
.locl __xcc1_internal_7.info, "p"
__xcc1_internal_7.info:
	.int 0x00040300
	.long tile + 0
.sameresource __xcc1_internal_7, smi_p1, 4
.locl __xcc1_internal_8.info, "p"
__xcc1_internal_8.info:
	.int 0x00040200
	.long tile + 0
.sameresource __xcc1_internal_8, smi_p2, 4
.locl __xcc1_internal_9.info, "ck"
__xcc1_internal_9.info:
	.int 0x00000306
	.long tile + 0
.sameresource __xcc1_internal_9, mii_p2, 0
.locl __xcc1_internal_10.info, "ck"
__xcc1_internal_10.info:
	.int 0x00000406
	.long tile + 0
.sameresource __xcc1_internal_10, mii_p2, 4
.locl __xcc1_internal_11.info, "i:p"
__xcc1_internal_11.info:
	.int 0x00010800
	.long tile + 0
.sameresource __xcc1_internal_11, mii_p2, 8
.locl __xcc1_internal_12.info, "i:p"
__xcc1_internal_12.info:
	.int 0x00010600
	.long tile + 0
.sameresource __xcc1_internal_12, mii_p2, 12
.locl __xcc1_internal_13.info, "bi:p:32"
__xcc1_internal_13.info:
	.int 0x00040100
	.long tile + 0
.sameresource __xcc1_internal_13, mii_p2, 16
.locl __xcc1_internal_14.info, "i:p"
__xcc1_internal_14.info:
	.int 0x00010b00
	.long tile + 0
.sameresource __xcc1_internal_14, mii_p2, 20
.locl __xcc1_internal_15.info, "i:p"
__xcc1_internal_15.info:
	.int 0x00010700
	.long tile + 0
.sameresource __xcc1_internal_15, mii_p2, 24
.locl __xcc1_internal_16.info, "o:p"
__xcc1_internal_16.info:
	.int 0x00010900
	.long tile + 0
.sameresource __xcc1_internal_16, mii_p2, 28
.locl __xcc1_internal_17.info, "bo:p:32"
__xcc1_internal_17.info:
	.int 0x00040000
	.long tile + 0
.sameresource __xcc1_internal_17, mii_p2, 32
.locl __xcc1_internal_18.info, "i:p"
__xcc1_internal_18.info:
	.int 0x00080200
	.long tile + 0
.sameresource __xcc1_internal_18, mii_p2, 36
.globl eth_rst_p1.info, "o:p"
eth_rst_p1.info:
	.int 0x00010f00
	.long tile + 0
.globl eth_rst_p2.info, "o:p"
eth_rst_p2.info:
	.int 0x00010400
	.long tile + 0
	.set usage.anon.0,0
	.set usage.anon.1,0
	.set usage.anon.2,0
	.set usage.anon.3,0
	.set usage.anon.4,0
	.set usage.anon.5,0
	.set usage.anon.6,0
	.set usage.anon.7,0
	.set usage.anon.8,0
	.set usage.anon.9,0
	.set usage.anon.10,0
	.set usage.anon.11,0
	.set usage.anon.12,0
	.set usage.anon.13,0
	.set usage.anon.14,0
	.set usage.anon.15,0
	.set usage.anon.16,0
	.set usage.anon.17,0
	.set usage.anon.18,0
	.set usage.anon.19,0
	.set usage.anon.20,0
	.set usage.anon.21,0
	.set usage.anon.22,0
	.set usage.anon.23,0
	.set usage.anon.24,0
	.set usage.anon.25,0
	.set usage.anon.26,0
	.set usage.anon.27,0
	.set usage.anon.28,0
	.set usage.anon.29,0
	.set usage.anon.30,0
	.set usage.anon.31,0
	.set usage.anon.32,0
	.set usage.anon.33,0
	.set usage.anon.34,0
	.set usage.anon.35,0
	.set usage.anon.36,0
	.set usage.anon.37,0
	.set usage.anon.38,0
	.set usage.anon.39,0
	.set usage.anon.40,0
	.set usage.anon.41,0
	.set usage.anon.42,0
	.set usage.anon.43,0
	.set usage.anon.44,0
	.set usage.anon.45,0
	.set usage.anon.46,0
	.set usage.anon.47,0
	.set usage.anon.48,0
	.set usage.anon.49,0
	.set usage.anon.50,0
	.set usage.anon.51,0
	.set usage.anon.52,0
	.set usage.anon.53,0
	.set usage.anon.54,0
	.set usage.anon.55,0
	.set usage.anon.56,0
	.set usage.anon.57,0
	.set usage.anon.58,0
	.globread is_valid_icmp_packet1,usage.anon.56,"../src/demo.xc:516: error: previously used here"
	.globread is_valid_icmp_packet0,usage.anon.55,"../src/demo.xc:469: error: previously used here"
	.globread build_icmp_response1,usage.anon.54,3,1,"../src/demo.xc:419: error: previously used here (bytes 3..4)"
	.globread build_icmp_response1,usage.anon.54,2,1,"../src/demo.xc:419: error: previously used here (bytes 2..3)"
	.globread build_icmp_response1,usage.anon.54,1,1,"../src/demo.xc:418: error: previously used here (bytes 1..2)"
	.globread build_icmp_response1,usage.anon.54,"../src/demo.xc:416: error: previously used here"
	.globread build_icmp_response1,usage.anon.54,0,1,"../src/demo.xc:418: error: previously used here (bytes 0..1)"
	.globread build_icmp_response0,usage.anon.53,3,1,"../src/demo.xc:345: error: previously used here (bytes 3..4)"
	.globread build_icmp_response0,usage.anon.53,2,1,"../src/demo.xc:345: error: previously used here (bytes 2..3)"
	.globread build_icmp_response0,usage.anon.53,1,1,"../src/demo.xc:344: error: previously used here (bytes 1..2)"
	.globread build_icmp_response0,usage.anon.53,"../src/demo.xc:342: error: previously used here"
	.globread build_icmp_response0,usage.anon.53,0,1,"../src/demo.xc:344: error: previously used here (bytes 0..1)"
	.globread is_valid_arp_packet1,usage.anon.52,"../src/demo.xc:288: error: previously used here"
	.globread is_valid_arp_packet0,usage.anon.51,"../src/demo.xc:252: error: previously used here"
	.globwrite usage.anon.58,eth_rst_p2,"../src/demo.xc:648: error: previously used here"
	.globwrite usage.anon.58,mii_p2,"../src/demo.xc:651: error: previously used here"
	.globwrite usage.anon.58,smi_p2,"../src/demo.xc:649: error: previously used here"
	.globwrite usage.anon.58,otp_ports_p2,"../src/demo.xc:647: error: previously used here"
	.globwrite usage.anon.57,eth_rst_p2,"../src/demo.xc:648: error: previously used here"
	.globwrite usage.anon.57,mii_p2,"../src/demo.xc:651: error: previously used here"
	.globwrite usage.anon.57,smi_p2,"../src/demo.xc:649: error: previously used here"
	.globwrite usage.anon.57,otp_ports_p2,"../src/demo.xc:647: error: previously used here"
	.globwrite demo1,own_mac_addr1,"../src/demo.xc:594: error: previously used here"
	.globwrite demo0,own_mac_addr0,"../src/demo.xc:546: error: previously used here"
	.globwrite _mac_custom_filter,ethertype_arp1,"../src/demo.xc:130: error: previously used here"
	.globwrite _mac_custom_filter,ethertype_ip1,"../src/demo.xc:132: error: previously used here"
	.globwrite mac_custom_filter,ethertype_arp0,"../src/demo.xc:120: error: previously used here"
	.globwrite mac_custom_filter,ethertype_ip0,"../src/demo.xc:122: error: previously used here"
	.call usage.anon.58,demo0
	.call usage.anon.58,smi_init
	.call usage.anon.58,otp_board_info_get_mac
	.call usage.anon.58,eth_phy_reset_p1
	.call usage.anon.58,eth_phy_config
	.call usage.anon.58,_ethernet_server_lite
	.call main,usage.anon.57
	.call main,demo0
	.call usage.anon.57,smi_init
	.call usage.anon.57,otp_board_info_get_mac
	.call usage.anon.57,eth_phy_reset_p1
	.call usage.anon.57,eth_phy_config
	.call usage.anon.57,_ethernet_server_lite
	.call demo1,printstr
	.call demo1,mac_custom_filter
	.call demo1,is_valid_icmp_packet1
	.call demo1,is_valid_arp_packet1
	.call demo1,is_mac_addr
	.call demo1,is_broadcast
	.call demo1,build_icmp_response1
	.call demo1,build_arp_response1
	.call demo1,_mac_tx_lite
	.call demo1,_mac_rx_lite
	.call demo1,_mac_get_macaddr_lite
	.call demo0,printstr
	.call demo0,is_valid_icmp_packet0
	.call demo0,is_valid_arp_packet0
	.call demo0,is_mac_addr
	.call demo0,is_broadcast
	.call demo0,build_icmp_response0
	.call demo0,build_arp_response0
	.call demo0,_mac_tx_lite
	.call demo0,_mac_rx_lite
	.call demo0,_mac_get_macaddr_lite
	.call demo0,_mac_custom_filter
	.call is_valid_icmp_packet1,printstr
	.call is_valid_icmp_packet1,printintln
	.call is_valid_icmp_packet1,checksum_ip
	.call is_valid_icmp_packet0,printstr
	.call is_valid_icmp_packet0,printintln
	.call is_valid_icmp_packet0,checksum_ip
	.call is_valid_arp_packet1,printstr
	.call is_valid_arp_packet0,printstr
	.call _mac_custom_filter,is_ethertype
	.call mac_custom_filter,is_ethertype
	.call usage.anon.2,delay_ticks_longlong
	.call usage.anon.1,delay_ticks_longlong
	.call usage.anon.0,delay_ticks_longlong
	.par usage.anon.57,demo0,"../src/demo.xc:640: error: use of `%s' violates parallel usage rules"
	.set usage.anon.57.locnoside, 1
	.set usage.anon.0.locnoside, 1
	.set usage.anon.1.locnoside, 1
	.set usage.anon.2.locnoside, 1
	.set usage.anon.3.locnoside, 1
	.set usage.anon.4.locnoside, 1
	.set usage.anon.5.locnoside, 1
	.set usage.anon.6.locnoside, 1
	.set usage.anon.7.locnoside, 1
	.set usage.anon.8.locnoside, 1
	.set usage.anon.9.locnoside, 1
	.set usage.anon.10.locnoside, 1
	.set usage.anon.11.locnoside, 1
	.set usage.anon.12.locnoside, 1
	.set usage.anon.13.locnoside, 1
	.set usage.anon.14.locnoside, 1
	.set usage.anon.15.locnoside, 1
	.set usage.anon.16.locnoside, 1
	.set usage.anon.17.locnoside, 1
	.set usage.anon.18.locnoside, 1
	.set usage.anon.19.locnoside, 1
	.set usage.anon.20.locnoside, 1
	.set usage.anon.21.locnoside, 1
	.set usage.anon.22.locnoside, 1
	.set usage.anon.23.locnoside, 1
	.set usage.anon.24.locnoside, 1
	.set usage.anon.25.locnoside, 1
	.set usage.anon.26.locnoside, 1
	.set usage.anon.27.locnoside, 1
	.set usage.anon.28.locnoside, 1
	.set usage.anon.29.locnoside, 1
	.set usage.anon.30.locnoside, 1
	.set usage.anon.31.locnoside, 1
	.set usage.anon.32.locnoside, 1
	.set usage.anon.33.locnoside, 1
	.set usage.anon.34.locnoside, 1
	.set usage.anon.35.locnoside, 1
	.set usage.anon.36.locnoside, 1
	.set usage.anon.37.locnoside, 1
	.set usage.anon.38.locnoside, 1
	.set usage.anon.39.locnoside, 1
	.set usage.anon.40.locnoside, 1
	.set usage.anon.41.locnoside, 1
	.set usage.anon.42.locnoside, 1
	.set usage.anon.43.locnoside, 1
	.set usage.anon.44.locnoside, 1
	.set usage.anon.45.locnoside, 1
	.set usage.anon.46.locnoside, 1
	.set usage.anon.47.locnoside, 1
	.set usage.anon.48.locnoside, 1
	.set usage.anon.49.locnoside, 1
	.set usage.anon.50.locnoside, 1
	.set is_ethertype.locnoside, 1
	.set is_mac_addr.locnoside, 1
	.set is_broadcast.locnoside, 1
	.set is_valid_arp_packet0.locnoside, 1
	.set is_valid_arp_packet1.locnoside, 1
	.set is_valid_icmp_packet0.locnoside, 1
	.set is_valid_icmp_packet1.locnoside, 1
	.set usage.anon.57.locnochandec, 1
	.set usage.anon.0.locnochandec, 1
	.set usage.anon.1.locnochandec, 1
	.set usage.anon.2.locnochandec, 1
	.set usage.anon.3.locnochandec, 1
	.set usage.anon.4.locnochandec, 1
	.set usage.anon.5.locnochandec, 1
	.set usage.anon.6.locnochandec, 1
	.set usage.anon.7.locnochandec, 1
	.set usage.anon.8.locnochandec, 1
	.set usage.anon.9.locnochandec, 1
	.set usage.anon.10.locnochandec, 1
	.set usage.anon.11.locnochandec, 1
	.set usage.anon.12.locnochandec, 1
	.set usage.anon.13.locnochandec, 1
	.set usage.anon.14.locnochandec, 1
	.set usage.anon.15.locnochandec, 1
	.set usage.anon.16.locnochandec, 1
	.set usage.anon.17.locnochandec, 1
	.set usage.anon.18.locnochandec, 1
	.set usage.anon.19.locnochandec, 1
	.set usage.anon.20.locnochandec, 1
	.set usage.anon.21.locnochandec, 1
	.set usage.anon.22.locnochandec, 1
	.set usage.anon.23.locnochandec, 1
	.set usage.anon.24.locnochandec, 1
	.set usage.anon.25.locnochandec, 1
	.set usage.anon.26.locnochandec, 1
	.set usage.anon.27.locnochandec, 1
	.set usage.anon.28.locnochandec, 1
	.set usage.anon.29.locnochandec, 1
	.set usage.anon.30.locnochandec, 1
	.set usage.anon.31.locnochandec, 1
	.set usage.anon.32.locnochandec, 1
	.set usage.anon.33.locnochandec, 1
	.set usage.anon.34.locnochandec, 1
	.set usage.anon.35.locnochandec, 1
	.set usage.anon.36.locnochandec, 1
	.set usage.anon.37.locnochandec, 1
	.set usage.anon.38.locnochandec, 1
	.set usage.anon.39.locnochandec, 1
	.set usage.anon.40.locnochandec, 1
	.set usage.anon.41.locnochandec, 1
	.set usage.anon.42.locnochandec, 1
	.set usage.anon.43.locnochandec, 1
	.set usage.anon.44.locnochandec, 1
	.set usage.anon.45.locnochandec, 1
	.set usage.anon.46.locnochandec, 1
	.set usage.anon.47.locnochandec, 1
	.set usage.anon.48.locnochandec, 1
	.set usage.anon.49.locnochandec, 1
	.set usage.anon.50.locnochandec, 1
	.set is_ethertype.locnochandec, 1
	.set is_mac_addr.locnochandec, 1
	.set is_broadcast.locnochandec, 1
	.set mac_custom_filter.locnochandec, 1
	.set _mac_custom_filter.locnochandec, 1
	.set build_arp_response0.locnochandec, 1
	.set build_arp_response1.locnochandec, 1
	.set is_valid_arp_packet0.locnochandec, 1
	.set is_valid_arp_packet1.locnochandec, 1
	.set build_icmp_response0.locnochandec, 1
	.set build_icmp_response1.locnochandec, 1
	.set is_valid_icmp_packet0.locnochandec, 1
	.set is_valid_icmp_packet1.locnochandec, 1
	.set demo0.locnochandec, 1
	.set demo1.locnochandec, 1
	.set usage.anon.57.locnoglobalaccess, 1
	.set usage.anon.0.locnoglobalaccess, 1
	.set usage.anon.1.locnoglobalaccess, 1
	.set usage.anon.2.locnoglobalaccess, 1
	.set usage.anon.3.locnoglobalaccess, 1
	.set usage.anon.4.locnoglobalaccess, 1
	.set usage.anon.5.locnoglobalaccess, 1
	.set usage.anon.6.locnoglobalaccess, 1
	.set usage.anon.7.locnoglobalaccess, 1
	.set usage.anon.8.locnoglobalaccess, 1
	.set usage.anon.9.locnoglobalaccess, 1
	.set usage.anon.10.locnoglobalaccess, 1
	.set usage.anon.11.locnoglobalaccess, 1
	.set usage.anon.12.locnoglobalaccess, 1
	.set usage.anon.13.locnoglobalaccess, 1
	.set usage.anon.14.locnoglobalaccess, 1
	.set usage.anon.15.locnoglobalaccess, 1
	.set usage.anon.16.locnoglobalaccess, 1
	.set usage.anon.17.locnoglobalaccess, 1
	.set usage.anon.18.locnoglobalaccess, 1
	.set usage.anon.19.locnoglobalaccess, 1
	.set usage.anon.20.locnoglobalaccess, 1
	.set usage.anon.21.locnoglobalaccess, 1
	.set usage.anon.22.locnoglobalaccess, 1
	.set usage.anon.23.locnoglobalaccess, 1
	.set usage.anon.24.locnoglobalaccess, 1
	.set usage.anon.25.locnoglobalaccess, 1
	.set usage.anon.26.locnoglobalaccess, 1
	.set usage.anon.27.locnoglobalaccess, 1
	.set usage.anon.28.locnoglobalaccess, 1
	.set usage.anon.29.locnoglobalaccess, 1
	.set usage.anon.30.locnoglobalaccess, 1
	.set usage.anon.31.locnoglobalaccess, 1
	.set usage.anon.32.locnoglobalaccess, 1
	.set usage.anon.33.locnoglobalaccess, 1
	.set usage.anon.34.locnoglobalaccess, 1
	.set usage.anon.35.locnoglobalaccess, 1
	.set usage.anon.36.locnoglobalaccess, 1
	.set usage.anon.37.locnoglobalaccess, 1
	.set usage.anon.38.locnoglobalaccess, 1
	.set usage.anon.39.locnoglobalaccess, 1
	.set usage.anon.40.locnoglobalaccess, 1
	.set usage.anon.41.locnoglobalaccess, 1
	.set usage.anon.42.locnoglobalaccess, 1
	.set usage.anon.43.locnoglobalaccess, 1
	.set usage.anon.44.locnoglobalaccess, 1
	.set usage.anon.45.locnoglobalaccess, 1
	.set usage.anon.46.locnoglobalaccess, 1
	.set usage.anon.47.locnoglobalaccess, 1
	.set usage.anon.48.locnoglobalaccess, 1
	.set usage.anon.49.locnoglobalaccess, 1
	.set usage.anon.50.locnoglobalaccess, 1
	.set is_ethertype.locnoglobalaccess, 1
	.set is_mac_addr.locnoglobalaccess, 1
	.set is_broadcast.locnoglobalaccess, 1
	.set build_arp_response0.locnoglobalaccess, 1
	.set build_arp_response1.locnoglobalaccess, 1
	.set is_valid_arp_packet0.locnoglobalaccess, 1
	.set is_valid_arp_packet1.locnoglobalaccess, 1
	.set build_icmp_response0.locnoglobalaccess, 1
	.set build_icmp_response1.locnoglobalaccess, 1
	.set is_valid_icmp_packet0.locnoglobalaccess, 1
	.set is_valid_icmp_packet1.locnoglobalaccess, 1
	.set usage.anon.57.locnointerfaceaccess, 1
	.set usage.anon.0.locnointerfaceaccess, 1
	.set usage.anon.1.locnointerfaceaccess, 1
	.set usage.anon.2.locnointerfaceaccess, 1
	.set usage.anon.3.locnointerfaceaccess, 1
	.set usage.anon.4.locnointerfaceaccess, 1
	.set usage.anon.5.locnointerfaceaccess, 1
	.set usage.anon.6.locnointerfaceaccess, 1
	.set usage.anon.7.locnointerfaceaccess, 1
	.set usage.anon.8.locnointerfaceaccess, 1
	.set usage.anon.9.locnointerfaceaccess, 1
	.set usage.anon.10.locnointerfaceaccess, 1
	.set usage.anon.11.locnointerfaceaccess, 1
	.set usage.anon.12.locnointerfaceaccess, 1
	.set usage.anon.13.locnointerfaceaccess, 1
	.set usage.anon.14.locnointerfaceaccess, 1
	.set usage.anon.15.locnointerfaceaccess, 1
	.set usage.anon.16.locnointerfaceaccess, 1
	.set usage.anon.17.locnointerfaceaccess, 1
	.set usage.anon.18.locnointerfaceaccess, 1
	.set usage.anon.19.locnointerfaceaccess, 1
	.set usage.anon.20.locnointerfaceaccess, 1
	.set usage.anon.21.locnointerfaceaccess, 1
	.set usage.anon.22.locnointerfaceaccess, 1
	.set usage.anon.23.locnointerfaceaccess, 1
	.set usage.anon.24.locnointerfaceaccess, 1
	.set usage.anon.25.locnointerfaceaccess, 1
	.set usage.anon.26.locnointerfaceaccess, 1
	.set usage.anon.27.locnointerfaceaccess, 1
	.set usage.anon.28.locnointerfaceaccess, 1
	.set usage.anon.29.locnointerfaceaccess, 1
	.set usage.anon.30.locnointerfaceaccess, 1
	.set usage.anon.31.locnointerfaceaccess, 1
	.set usage.anon.32.locnointerfaceaccess, 1
	.set usage.anon.33.locnointerfaceaccess, 1
	.set usage.anon.34.locnointerfaceaccess, 1
	.set usage.anon.35.locnointerfaceaccess, 1
	.set usage.anon.36.locnointerfaceaccess, 1
	.set usage.anon.37.locnointerfaceaccess, 1
	.set usage.anon.38.locnointerfaceaccess, 1
	.set usage.anon.39.locnointerfaceaccess, 1
	.set usage.anon.40.locnointerfaceaccess, 1
	.set usage.anon.41.locnointerfaceaccess, 1
	.set usage.anon.42.locnointerfaceaccess, 1
	.set usage.anon.43.locnointerfaceaccess, 1
	.set usage.anon.44.locnointerfaceaccess, 1
	.set usage.anon.45.locnointerfaceaccess, 1
	.set usage.anon.46.locnointerfaceaccess, 1
	.set usage.anon.47.locnointerfaceaccess, 1
	.set usage.anon.48.locnointerfaceaccess, 1
	.set usage.anon.49.locnointerfaceaccess, 1
	.set usage.anon.50.locnointerfaceaccess, 1
	.set is_ethertype.locnointerfaceaccess, 1
	.set is_mac_addr.locnointerfaceaccess, 1
	.set is_broadcast.locnointerfaceaccess, 1
	.set mac_custom_filter.locnointerfaceaccess, 1
	.set _mac_custom_filter.locnointerfaceaccess, 1
	.set build_arp_response0.locnointerfaceaccess, 1
	.set build_arp_response1.locnointerfaceaccess, 1
	.set is_valid_arp_packet0.locnointerfaceaccess, 1
	.set is_valid_arp_packet1.locnointerfaceaccess, 1
	.set build_icmp_response0.locnointerfaceaccess, 1
	.set build_icmp_response1.locnointerfaceaccess, 1
	.set is_valid_icmp_packet0.locnointerfaceaccess, 1
	.set is_valid_icmp_packet1.locnointerfaceaccess, 1
	.set demo0.locnointerfaceaccess, 1
	.set demo1.locnointerfaceaccess, 1
	.set main.locnointerfaceaccess, 1
	.set usage.anon.57.locnonotificationselect, 1
	.set usage.anon.0.locnonotificationselect, 1
	.set usage.anon.1.locnonotificationselect, 1
	.set usage.anon.2.locnonotificationselect, 1
	.set usage.anon.3.locnonotificationselect, 1
	.set usage.anon.4.locnonotificationselect, 1
	.set usage.anon.5.locnonotificationselect, 1
	.set usage.anon.6.locnonotificationselect, 1
	.set usage.anon.7.locnonotificationselect, 1
	.set usage.anon.8.locnonotificationselect, 1
	.set usage.anon.9.locnonotificationselect, 1
	.set usage.anon.10.locnonotificationselect, 1
	.set usage.anon.11.locnonotificationselect, 1
	.set usage.anon.12.locnonotificationselect, 1
	.set usage.anon.13.locnonotificationselect, 1
	.set usage.anon.14.locnonotificationselect, 1
	.set usage.anon.15.locnonotificationselect, 1
	.set usage.anon.16.locnonotificationselect, 1
	.set usage.anon.17.locnonotificationselect, 1
	.set usage.anon.18.locnonotificationselect, 1
	.set usage.anon.19.locnonotificationselect, 1
	.set usage.anon.20.locnonotificationselect, 1
	.set usage.anon.21.locnonotificationselect, 1
	.set usage.anon.22.locnonotificationselect, 1
	.set usage.anon.23.locnonotificationselect, 1
	.set usage.anon.24.locnonotificationselect, 1
	.set usage.anon.25.locnonotificationselect, 1
	.set usage.anon.26.locnonotificationselect, 1
	.set usage.anon.27.locnonotificationselect, 1
	.set usage.anon.28.locnonotificationselect, 1
	.set usage.anon.29.locnonotificationselect, 1
	.set usage.anon.30.locnonotificationselect, 1
	.set usage.anon.31.locnonotificationselect, 1
	.set usage.anon.32.locnonotificationselect, 1
	.set usage.anon.33.locnonotificationselect, 1
	.set usage.anon.34.locnonotificationselect, 1
	.set usage.anon.35.locnonotificationselect, 1
	.set usage.anon.36.locnonotificationselect, 1
	.set usage.anon.37.locnonotificationselect, 1
	.set usage.anon.38.locnonotificationselect, 1
	.set usage.anon.39.locnonotificationselect, 1
	.set usage.anon.40.locnonotificationselect, 1
	.set usage.anon.41.locnonotificationselect, 1
	.set usage.anon.42.locnonotificationselect, 1
	.set usage.anon.43.locnonotificationselect, 1
	.set usage.anon.44.locnonotificationselect, 1
	.set usage.anon.45.locnonotificationselect, 1
	.set usage.anon.46.locnonotificationselect, 1
	.set usage.anon.47.locnonotificationselect, 1
	.set usage.anon.48.locnonotificationselect, 1
	.set usage.anon.49.locnonotificationselect, 1
	.set usage.anon.50.locnonotificationselect, 1
	.set is_ethertype.locnonotificationselect, 1
	.set is_mac_addr.locnonotificationselect, 1
	.set is_broadcast.locnonotificationselect, 1
	.set mac_custom_filter.locnonotificationselect, 1
	.set _mac_custom_filter.locnonotificationselect, 1
	.set build_arp_response0.locnonotificationselect, 1
	.set build_arp_response1.locnonotificationselect, 1
	.set is_valid_arp_packet0.locnonotificationselect, 1
	.set is_valid_arp_packet1.locnonotificationselect, 1
	.set build_icmp_response0.locnonotificationselect, 1
	.set build_icmp_response1.locnonotificationselect, 1
	.set is_valid_icmp_packet0.locnonotificationselect, 1
	.set is_valid_icmp_packet1.locnonotificationselect, 1
	.set demo0.locnonotificationselect, 1
	.set demo1.locnonotificationselect, 1
	.set main.locnonotificationselect, 1
	.globpassesref _ethernet_server_lite, mii_p2,"../src/demo.xc:651: error: call to `_ethernet_server_lite' in `main' makes alias of global 'mii_p2'"
	.globpassesref eth_phy_config, smi_p2,"../src/demo.xc:650: error: call to `eth_phy_config' in `main' makes alias of global 'smi_p2'"
	.globpassesref smi_init, smi_p2,"../src/demo.xc:649: error: call to `smi_init' in `main' makes alias of global 'smi_p2'"
	.globpassesref eth_phy_reset_p1, eth_rst_p2,"../src/demo.xc:648: error: call to `eth_phy_reset_p1' in `main' makes alias of global 'eth_rst_p2'"
	.globpassesref otp_board_info_get_mac, otp_ports_p2,"../src/demo.xc:647: error: call to `otp_board_info_get_mac' in `main' makes alias of global 'otp_ports_p2'"
	.globpassesref build_icmp_response1, own_mac_addr1,"../src/demo.xc:628: error: call to `build_icmp_response1' in `demo1' makes alias of global 'own_mac_addr1'"
	.globpassesref build_arp_response1, own_mac_addr1,"../src/demo.xc:621: error: call to `build_arp_response1' in `demo1' makes alias of global 'own_mac_addr1'"
	.globpassesref is_mac_addr, own_mac_addr1,"../src/demo.xc:611: error: call to `is_mac_addr' in `demo1' makes alias of global 'own_mac_addr1'"
	.globpassesref _mac_get_macaddr_lite, own_mac_addr1,"../src/demo.xc:594: error: call to `_mac_get_macaddr_lite' in `demo1' makes alias of global 'own_mac_addr1'"
	.globpassesref build_icmp_response0, own_mac_addr0,"../src/demo.xc:580: error: call to `build_icmp_response0' in `demo0' makes alias of global 'own_mac_addr0'"
	.globpassesref build_arp_response0, own_mac_addr0,"../src/demo.xc:573: error: call to `build_arp_response0' in `demo0' makes alias of global 'own_mac_addr0'"
	.globpassesref is_mac_addr, own_mac_addr0,"../src/demo.xc:563: error: call to `is_mac_addr' in `demo0' makes alias of global 'own_mac_addr0'"
	.globpassesref _mac_get_macaddr_lite, own_mac_addr0,"../src/demo.xc:546: error: call to `_mac_get_macaddr_lite' in `demo0' makes alias of global 'own_mac_addr0'"
	.globpassesref is_ethertype, ethertype_ip1,"../src/demo.xc:132: error: call to `is_ethertype' in `_mac_custom_filter' makes alias of global 'ethertype_ip1'"
	.globpassesref is_ethertype, ethertype_arp1,"../src/demo.xc:130: error: call to `is_ethertype' in `_mac_custom_filter' makes alias of global 'ethertype_arp1'"
	.globpassesref is_ethertype, ethertype_ip0,"../src/demo.xc:122: error: call to `is_ethertype' in `mac_custom_filter' makes alias of global 'ethertype_ip0'"
	.globpassesref is_ethertype, ethertype_arp0,"../src/demo.xc:120: error: call to `is_ethertype' in `mac_custom_filter' makes alias of global 'ethertype_arp0'"
	.overlay_subgraph_conflict __main__main_tile_0_task__ethernet_server_lite_0, __main__main_tile_0_task_demo0_1


	.file	1 "/home/atena/workspace_ethernet_new_replicated/app_ethernet_demo/.build_lite/../src/demo.xc"
	.file	2 "/home/atena/workspace_ethernet_new_replicated/app_ethernet_demo/.build_lite/timer.h"
	.file	3 "/home/atena/workspace_ethernet_new_replicated/app_ethernet_demo/.build_lite/mii_full_p1.h"
	.file	4 "/home/atena/workspace_ethernet_new_replicated/app_ethernet_demo/.build_lite/mii_full_p2.h"
	.file	5 "/home/atena/workspace_ethernet_new_replicated/app_ethernet_demo/.build_lite/<synthesized>"
	.text
.Ltext_begin:
	.section	.dp.data,"awd",@progbits
	.text
	.cc_top demo0.function
	.globl	demo0
	.align	4
	.type	demo0,@function
demo0:
.Ltmp2:
	.cfi_startproc
.Lfunc_begin51:
	.loc	1 541 0
	entsp 823
.Ltmp3:
	.cfi_def_cfa_offset 3292
.Ltmp4:
	.cfi_offset 15, 0
	stw r4, sp[822]
.Ltmp5:
	.cfi_offset 4, -4
	stw r1, sp[15]
	stw r0, sp[14]
	ldw r0, sp[14]
	stw r0, sp[820]
	ldw r1, sp[15]
	stw r1, sp[819]
.Lxtalabel0:
.Ltmp6:
	.loc	1 546 0 prologue_end
	ldw r0, sp[820]
	ldc r2, 6
	.loc	1 546 0
	ldaw r1, dp[own_mac_addr0]
.Lxta.call_labels0:
	bl _mac_get_macaddr_lite
	ldc r1, 20
	.loc	1 554 0
	ldaw r2, dp[.str21]
	stw r0, sp[13]
	mov r0, r2
.Lxta.call_labels1:
	bl printstr
	.loc	1 557 0
	stw r0, sp[12]
	bu .LBB51_19
.LBB51_3:
.Lxtalabel1:
.Ltmp7:
	.loc	1 561 0
	ldw r0, sp[819]
	ldaw r1, sp[419]
	ldc r2, 1600
	.loc	1 561 0
	stw r2, sp[1]
	ldaw r3, sp[17]
	ldaw r11, sp[18]
	stw r1, sp[11]
	stw r2, sp[10]
	mov r2, r3
	mov r3, r11
.Lxta.call_labels2:
	bl _mac_rx_lite
	.loc	1 563 0
	ldw r0, sp[11]
	ldw r1, sp[10]
.Lxta.call_labels3:
	bl is_broadcast
	.loc	1 563 0
	bt r0, .LBB51_8
	bu .LBB51_7
.LBB51_4:
.Lxtalabel2:
	.loc	1 564 0
	bu .LBB51_19
.LBB51_5:
.Lxtalabel3:
	ldaw r0, sp[419]
	ldc r1, 400
	.loc	1 565 0
.Lxta.call_labels4:
	bl _mac_custom_filter
	.loc	1 565 0
	eq r0, r0, 1
	bf r0, .LBB51_10
	bu .LBB51_11
.LBB51_6:
	mkmsk r0, 1
	.loc	1 563 0
	stw r0, sp[16]
	bu .LBB51_9
.LBB51_7:
	ldaw r0, sp[419]
	ldc r2, 1600
	ldc r3, 6
	ldaw r1, dp[own_mac_addr0]
	bl is_mac_addr
	bf r0, .LBB51_6
	bu .LBB51_8
.LBB51_8:
	ldc r0, 0
	stw r0, sp[16]
.LBB51_9:
	ldw r0, sp[16]
	bt r0, .LBB51_4
	bu .LBB51_5
.LBB51_10:
.Lxtalabel4:
	.loc	1 566 0
	bu .LBB51_19
.LBB51_11:
.Lxtalabel5:
	ldaw r0, sp[419]
	.loc	1 571 0
	ldw r1, sp[17]
	ldc r2, 1600
	.loc	1 571 0
.Lxta.call_labels5:
	bl is_valid_arp_packet0
	.loc	1 571 0
	bf r0, .LBB51_14
	bu .LBB51_12
.LBB51_12:
.Lxtalabel6:
	ldaw r0, sp[419]
	ldaw r1, sp[19]
	mkmsk r2, 1
	.loc	1 573 0
	stw r0, sp[9]
	stw r1, sp[8]
	ecallf r2
	bu .LBB51_15
.Ltmp8:
.LBB51_13:
.Lxtalabel7:
.Lxta.loop_labels0:
	# LOOPMARKER 0
	.loc	1 557 0
	bu .LBB51_19
.LBB51_14:
.Lxtalabel8:
	ldaw r0, sp[419]
	.loc	1 578 0
.Ltmp9:
	ldw r1, sp[17]
	ldc r2, 1600
	.loc	1 578 0
.Lxta.call_labels6:
	bl is_valid_icmp_packet0
	.loc	1 578 0
	bt r0, .LBB51_16
	bu .LBB51_17
.LBB51_15:
	ldc r0, 400
	.loc	1 573 0
	stw r0, sp[1]
	ldc r3, 1600
	ldaw r2, dp[own_mac_addr0]
	ldw r1, sp[9]
	stw r0, sp[7]
	mov r0, r1
	ldw r1, sp[8]
.Lxta.call_labels7:
	bl build_arp_response0
	.loc	1 574 0
	ldw r1, sp[820]
	ldaw r2, sp[19]
	ldw r3, sp[17]
	.loc	1 574 0
	ldw r11, sp[7]
	stw r11, sp[1]
	mkmsk r4, 32
	stw r0, sp[6]
	mov r0, r1
	mov r1, r2
	mov r2, r3
	mov r3, r4
.Lxta.call_labels8:
	bl _mac_tx_lite
	.loc	1 574 0
	bu .LBB51_13
.LBB51_16:
.Lxtalabel9:
	ldaw r0, sp[419]
	ldaw r1, sp[19]
	mkmsk r2, 1
	.loc	1 580 0
	stw r0, sp[5]
	stw r1, sp[4]
	ecallf r2
	bu .LBB51_18
.LBB51_17:
	.loc	1 581 0
	bu .LBB51_13
.LBB51_18:
	ldc r0, 1600
	.loc	1 580 0
	stw r0, sp[1]
	ldaw r2, dp[own_mac_addr0]
	ldw r1, sp[5]
	stw r0, sp[3]
	mov r0, r1
	ldw r1, sp[4]
	ldw r3, sp[3]
.Lxta.call_labels9:
	bl build_icmp_response0
	.loc	1 581 0
	ldw r1, sp[820]
	ldaw r2, sp[19]
	ldw r3, sp[17]
	ldc r11, 400
	.loc	1 581 0
	stw r11, sp[1]
	mkmsk r11, 32
	stw r0, sp[2]
	mov r0, r1
	mov r1, r2
	mov r2, r3
	mov r3, r11
.Lxta.call_labels10:
	bl _mac_tx_lite
	.loc	1 581 0
	bu .LBB51_17
.Ltmp10:
.LBB51_19:
	mkmsk r0, 1
	.loc	1 557 0
	bt r0, .LBB51_3
	bu .LBB51_20
.Ltmp11:
.LBB51_20:
.Lxtalabel10:
	ldw r4, sp[822]
	retsp 823
.LBB51_22:
	ldc r0, 0
	ecallf r0
.Ltmp12:
	.size	demo0, .Ltmp12-demo0
.Lfunc_end51:
.Ltmp13:
	.cfi_endproc
.Leh_func_end51:

	.align	4
	.cc_bottom demo0.function
	.set	demo0.nstackwords,((_mac_get_macaddr_lite.nstackwords $M printstr.nstackwords $M _mac_rx_lite.nstackwords $M is_broadcast.nstackwords $M _mac_custom_filter.nstackwords $M is_valid_arp_packet0.nstackwords $M build_arp_response0.nstackwords $M is_valid_icmp_packet0.nstackwords $M build_icmp_response0.nstackwords $M _mac_tx_lite.nstackwords $M is_mac_addr.nstackwords) + 823)
	.globl	demo0.nstackwords
	.set	demo0.maxcores,_mac_custom_filter.maxcores $M _mac_get_macaddr_lite.maxcores $M _mac_rx_lite.maxcores $M _mac_tx_lite.maxcores $M build_arp_response0.maxcores $M build_icmp_response0.maxcores $M is_broadcast.maxcores $M is_mac_addr.maxcores $M is_valid_arp_packet0.maxcores $M is_valid_icmp_packet0.maxcores $M printstr.maxcores $M 1
	.globl	demo0.maxcores
	.set	demo0.maxtimers,_mac_custom_filter.maxtimers $M _mac_get_macaddr_lite.maxtimers $M _mac_rx_lite.maxtimers $M _mac_tx_lite.maxtimers $M build_arp_response0.maxtimers $M build_icmp_response0.maxtimers $M is_broadcast.maxtimers $M is_mac_addr.maxtimers $M is_valid_arp_packet0.maxtimers $M is_valid_icmp_packet0.maxtimers $M printstr.maxtimers $M 0
	.globl	demo0.maxtimers
	.set	demo0.maxchanends,_mac_custom_filter.maxchanends $M _mac_get_macaddr_lite.maxchanends $M _mac_rx_lite.maxchanends $M _mac_tx_lite.maxchanends $M build_arp_response0.maxchanends $M build_icmp_response0.maxchanends $M is_broadcast.maxchanends $M is_mac_addr.maxchanends $M is_valid_arp_packet0.maxchanends $M is_valid_icmp_packet0.maxchanends $M printstr.maxchanends $M 0
	.globl	demo0.maxchanends
	.cc_top demo1.function
	.globl	demo1
	.align	4
	.type	demo1,@function
demo1:
.Ltmp16:
	.cfi_startproc
.Lfunc_begin52:
	.loc	1 589 0
	entsp 825
.Ltmp17:
	.cfi_def_cfa_offset 3300
.Ltmp18:
	.cfi_offset 15, 0
	stw r4, sp[824]
.Ltmp19:
	.cfi_offset 4, -4
	stw r1, sp[17]
	stw r0, sp[16]
	ldw r0, sp[16]
	stw r0, sp[822]
	ldw r1, sp[17]
	stw r1, sp[821]
.Lxtalabel11:
.Ltmp20:
	.loc	1 594 0 prologue_end
	ldw r0, sp[822]
	ldc r2, 6
	.loc	1 594 0
	ldaw r1, dp[own_mac_addr1]
.Lxta.call_labels11:
	bl _mac_get_macaddr_lite
	ldc r1, 20
	.loc	1 602 0
	ldaw r2, dp[.str22]
	stw r0, sp[15]
	mov r0, r2
.Lxta.call_labels12:
	bl printstr
	.loc	1 605 0
	stw r0, sp[14]
	bu .LBB52_19
.LBB52_3:
.Lxtalabel12:
.Ltmp21:
	.loc	1 609 0
	ldw r0, sp[821]
	ldaw r1, sp[421]
	ldc r2, 1600
	.loc	1 609 0
	stw r2, sp[1]
	ldaw r3, sp[19]
	ldaw r11, sp[20]
	stw r1, sp[13]
	stw r2, sp[12]
	mov r2, r3
	mov r3, r11
.Lxta.call_labels13:
	bl _mac_rx_lite
	.loc	1 611 0
	ldw r0, sp[13]
	ldw r1, sp[12]
.Lxta.call_labels14:
	bl is_broadcast
	.loc	1 611 0
	bt r0, .LBB52_8
	bu .LBB52_7
.LBB52_4:
.Lxtalabel13:
	.loc	1 612 0
	bu .LBB52_19
.LBB52_5:
.Lxtalabel14:
	ldaw r0, sp[421]
	ldc r1, 400
	.loc	1 613 0
.Lxta.call_labels15:
	bl mac_custom_filter
	.loc	1 613 0
	eq r0, r0, 1
	bf r0, .LBB52_10
	bu .LBB52_11
.LBB52_6:
	mkmsk r0, 1
	.loc	1 611 0
	stw r0, sp[18]
	bu .LBB52_9
.LBB52_7:
	ldaw r0, sp[421]
	ldc r2, 1600
	ldc r3, 6
	ldaw r1, dp[own_mac_addr1]
	bl is_mac_addr
	bf r0, .LBB52_6
	bu .LBB52_8
.LBB52_8:
	ldc r0, 0
	stw r0, sp[18]
.LBB52_9:
	ldw r0, sp[18]
	bt r0, .LBB52_4
	bu .LBB52_5
.LBB52_10:
.Lxtalabel15:
	.loc	1 614 0
	bu .LBB52_19
.LBB52_11:
.Lxtalabel16:
	ldaw r0, sp[421]
	.loc	1 619 0
	ldw r1, sp[19]
	ldc r2, 1600
	.loc	1 619 0
.Lxta.call_labels16:
	bl is_valid_arp_packet1
	.loc	1 619 0
	bf r0, .LBB52_14
	bu .LBB52_12
.LBB52_12:
.Lxtalabel17:
	ldaw r0, sp[421]
	ldaw r1, sp[21]
	mkmsk r2, 1
	.loc	1 621 0
	stw r0, sp[11]
	stw r1, sp[10]
	ecallf r2
	bu .LBB52_15
.Ltmp22:
.LBB52_13:
.Lxtalabel18:
.Lxta.loop_labels1:
	# LOOPMARKER 0
	.loc	1 605 0
	bu .LBB52_19
.LBB52_14:
.Lxtalabel19:
	ldaw r0, sp[421]
	.loc	1 626 0
.Ltmp23:
	ldw r1, sp[19]
	ldc r2, 1600
	.loc	1 626 0
.Lxta.call_labels17:
	bl is_valid_icmp_packet1
	.loc	1 626 0
	bt r0, .LBB52_16
	bu .LBB52_17
.LBB52_15:
	ldc r0, 400
	.loc	1 621 0
	stw r0, sp[1]
	ldc r3, 1600
	ldaw r2, dp[own_mac_addr1]
	ldw r1, sp[11]
	stw r0, sp[9]
	mov r0, r1
	ldw r1, sp[10]
.Lxta.call_labels18:
	bl build_arp_response1
	.loc	1 622 0
	ldw r1, sp[822]
	ldaw r2, sp[21]
	ldw r3, sp[19]
	.loc	1 622 0
	ldw r11, sp[9]
	stw r11, sp[1]
	mkmsk r4, 32
	stw r0, sp[8]
	mov r0, r1
	mov r1, r2
	mov r2, r3
	mov r3, r4
.Lxta.call_labels19:
	bl _mac_tx_lite
	ldc r1, 19
	.loc	1 623 0
	ldaw r0, dp[.str23]
.Lxta.call_labels20:
	bl printstr
	.loc	1 623 0
	stw r0, sp[7]
	bu .LBB52_13
.LBB52_16:
.Lxtalabel20:
	ldaw r0, sp[421]
	ldaw r1, sp[21]
	mkmsk r2, 1
	.loc	1 628 0
	stw r0, sp[6]
	stw r1, sp[5]
	ecallf r2
	bu .LBB52_18
.LBB52_17:
	.loc	1 630 0
	bu .LBB52_13
.LBB52_18:
	ldc r0, 1600
	.loc	1 628 0
	stw r0, sp[1]
	ldaw r2, dp[own_mac_addr1]
	ldw r1, sp[6]
	stw r0, sp[4]
	mov r0, r1
	ldw r1, sp[5]
	ldw r3, sp[4]
.Lxta.call_labels21:
	bl build_icmp_response1
	.loc	1 629 0
	ldw r1, sp[822]
	ldaw r2, sp[21]
	ldw r3, sp[19]
	ldc r11, 400
	.loc	1 629 0
	stw r11, sp[1]
	mkmsk r11, 32
	stw r0, sp[3]
	mov r0, r1
	mov r1, r2
	mov r2, r3
	mov r3, r11
.Lxta.call_labels22:
	bl _mac_tx_lite
	ldc r1, 20
	.loc	1 630 0
	ldaw r0, dp[.str24]
.Lxta.call_labels23:
	bl printstr
	.loc	1 630 0
	stw r0, sp[2]
	bu .LBB52_17
.Ltmp24:
.LBB52_19:
	mkmsk r0, 1
	.loc	1 605 0
	bt r0, .LBB52_3
	bu .LBB52_20
.Ltmp25:
.LBB52_20:
.Lxtalabel21:
	ldw r4, sp[824]
	retsp 825
.LBB52_22:
	ldc r0, 0
	ecallf r0
.Ltmp26:
	.size	demo1, .Ltmp26-demo1
.Lfunc_end52:
.Ltmp27:
	.cfi_endproc
.Leh_func_end52:

	.align	4
	.cc_bottom demo1.function
	.set	demo1.nstackwords,((_mac_get_macaddr_lite.nstackwords $M _mac_rx_lite.nstackwords $M is_broadcast.nstackwords $M mac_custom_filter.nstackwords $M is_valid_arp_packet1.nstackwords $M build_arp_response1.nstackwords $M is_valid_icmp_packet1.nstackwords $M build_icmp_response1.nstackwords $M _mac_tx_lite.nstackwords $M printstr.nstackwords $M is_mac_addr.nstackwords) + 825)
	.globl	demo1.nstackwords
	.set	demo1.maxcores,_mac_get_macaddr_lite.maxcores $M _mac_rx_lite.maxcores $M _mac_tx_lite.maxcores $M build_arp_response1.maxcores $M build_icmp_response1.maxcores $M is_broadcast.maxcores $M is_mac_addr.maxcores $M is_valid_arp_packet1.maxcores $M is_valid_icmp_packet1.maxcores $M mac_custom_filter.maxcores $M printstr.maxcores $M 1
	.globl	demo1.maxcores
	.set	demo1.maxtimers,_mac_get_macaddr_lite.maxtimers $M _mac_rx_lite.maxtimers $M _mac_tx_lite.maxtimers $M build_arp_response1.maxtimers $M build_icmp_response1.maxtimers $M is_broadcast.maxtimers $M is_mac_addr.maxtimers $M is_valid_arp_packet1.maxtimers $M is_valid_icmp_packet1.maxtimers $M mac_custom_filter.maxtimers $M printstr.maxtimers $M 0
	.globl	demo1.maxtimers
	.set	demo1.maxchanends,_mac_get_macaddr_lite.maxchanends $M _mac_rx_lite.maxchanends $M _mac_tx_lite.maxchanends $M build_arp_response1.maxchanends $M build_icmp_response1.maxchanends $M is_broadcast.maxchanends $M is_mac_addr.maxchanends $M is_valid_arp_packet1.maxchanends $M is_valid_icmp_packet1.maxchanends $M mac_custom_filter.maxchanends $M printstr.maxchanends $M 0
	.globl	demo1.maxchanends
	.cc_top is_ethertype.function
	.globl	is_ethertype
	.align	4
	.type	is_ethertype,@function
is_ethertype:
.Ltmp29:
	.cfi_startproc
.Lfunc_begin53:
	.loc	1 91 0
	entsp 12
.Ltmp30:
	.cfi_def_cfa_offset 48
.Ltmp31:
	.cfi_offset 15, 0
	stw r3, sp[3]
	stw r0, sp[2]
	stw r2, sp[1]
	stw r1, sp[0]
	ldw r0, sp[2]
	stw r0, sp[10]
	ldw r1, sp[1]
	stw r1, sp[9]
	ldw r2, sp[0]
	stw r2, sp[8]
	ldw r3, sp[3]
	stw r3, sp[7]
.Lxtalabel22:
.Ltmp32:
	ldc r0, 12
	.loc	1 92 0 prologue_end
.Ltmp33:
	stw r0, sp[5]
	.loc	1 93 0
	ldw r1, sp[10]
	ldw r2, sp[8]
	ldc r3, 0
	ld8u r2, r2[r3]
	ld8u r0, r1[r0]
	eq r0, r0, r2
	bf r0, .LBB53_5
	bu .LBB53_4
.LBB53_3:
	mkmsk r0, 1
	stw r0, sp[4]
	bu .LBB53_6
.LBB53_4:
	ldw r0, sp[10]
	ldw r1, sp[5]
	ldw r2, sp[8]
	mkmsk r3, 1
	ld8u r2, r2[r3]
	add r0, r1, r0
	ld8u r0, r0[r3]
	eq r0, r0, r2
	bt r0, .LBB53_3
	bu .LBB53_5
.LBB53_5:
	ldc r0, 0
	stw r0, sp[4]
.LBB53_6:
	ldw r0, sp[4]
	stw r0, sp[6]
.Ltmp34:
	ldw r0, sp[6]
	retsp 12
.Ltmp35:
	.size	is_ethertype, .Ltmp35-is_ethertype
.Lfunc_end53:
.Ltmp36:
	.cfi_endproc
.Leh_func_end53:

	.align	4
	.cc_bottom is_ethertype.function
	.set	is_ethertype.nstackwords,12
	.globl	is_ethertype.nstackwords
	.set	is_ethertype.maxcores,1
	.globl	is_ethertype.maxcores
	.set	is_ethertype.maxtimers,0
	.globl	is_ethertype.maxtimers
	.set	is_ethertype.maxchanends,0
	.globl	is_ethertype.maxchanends
	.cc_top is_mac_addr.function
	.globl	is_mac_addr
	.align	4
	.type	is_mac_addr,@function
is_mac_addr:
.Ltmp38:
	.cfi_startproc
.Lfunc_begin54:
	.loc	1 97 0
	entsp 11
.Ltmp39:
	.cfi_def_cfa_offset 44
.Ltmp40:
	.cfi_offset 15, 0
	stw r3, sp[3]
	stw r0, sp[2]
	stw r2, sp[1]
	stw r1, sp[0]
	ldw r0, sp[2]
	stw r0, sp[9]
	ldw r1, sp[1]
	stw r1, sp[8]
	ldw r2, sp[0]
	stw r2, sp[7]
	ldw r3, sp[3]
	stw r3, sp[6]
.Lxtalabel23:
	ldc r0, 0
	.loc	1 98 0 prologue_end
.Ltmp41:
	stw r0, sp[4]
.Ltmp42:
	bu .LBB54_7
.LBB54_3:
.Lxtalabel24:
	.loc	1 99 0
	ldw r0, sp[9]
	ldw r1, sp[4]
	ldw r2, sp[7]
	ld8u r2, r2[r1]
	ld8u r0, r0[r1]
	eq r0, r0, r2
	bt r0, .LBB54_5
	bu .LBB54_4
.LBB54_4:
.Lxtalabel25:
	ldc r0, 0
	.loc	1 100 0
	stw r0, sp[5]
	bu .LBB54_9
.LBB54_5:
.Lxtalabel26:
	.loc	1 98 0
	ldw r0, sp[4]
	add r0, r0, 1
	stw r0, sp[4]
.Lxta.loop_labels2:
	# LOOPMARKER 0
.LBB54_7:
	ldw r0, sp[4]
	ldc r1, 6
	lss r0, r0, r1
	bt r0, .LBB54_3
	bu .LBB54_8
.Ltmp43:
.LBB54_8:
.Lxtalabel27:
	mkmsk r0, 1
	.loc	1 104 0
	stw r0, sp[5]
.Ltmp44:
.LBB54_9:
	ldw r0, sp[5]
	retsp 11
.Ltmp45:
	.size	is_mac_addr, .Ltmp45-is_mac_addr
.Lfunc_end54:
.Ltmp46:
	.cfi_endproc
.Leh_func_end54:

	.align	4
	.cc_bottom is_mac_addr.function
	.set	is_mac_addr.nstackwords,11
	.globl	is_mac_addr.nstackwords
	.set	is_mac_addr.maxcores,1
	.globl	is_mac_addr.maxcores
	.set	is_mac_addr.maxtimers,0
	.globl	is_mac_addr.maxtimers
	.set	is_mac_addr.maxchanends,0
	.globl	is_mac_addr.maxchanends
	.cc_top is_broadcast.function
	.globl	is_broadcast
	.align	4
	.type	is_broadcast,@function
is_broadcast:
.Ltmp48:
	.cfi_startproc
.Lfunc_begin55:
	.loc	1 108 0
	entsp 7
.Ltmp49:
	.cfi_def_cfa_offset 28
.Ltmp50:
	.cfi_offset 15, 0
	stw r0, sp[1]
	stw r1, sp[0]
	ldw r0, sp[1]
	stw r0, sp[5]
	ldw r1, sp[0]
	stw r1, sp[4]
.Lxtalabel28:
	ldc r0, 0
	.loc	1 109 0 prologue_end
.Ltmp51:
	stw r0, sp[2]
.Ltmp52:
	bu .LBB55_7
.LBB55_3:
.Lxtalabel29:
	.loc	1 110 0
	ldw r0, sp[5]
	ldw r1, sp[2]
	ld8u r0, r0[r1]
	mkmsk r1, 8
	eq r0, r0, r1
	bt r0, .LBB55_5
	bu .LBB55_4
.LBB55_4:
.Lxtalabel30:
	ldc r0, 0
	.loc	1 111 0
	stw r0, sp[3]
	bu .LBB55_9
.LBB55_5:
.Lxtalabel31:
	.loc	1 109 0
	ldw r0, sp[2]
	add r0, r0, 1
	stw r0, sp[2]
.Lxta.loop_labels3:
	# LOOPMARKER 0
.LBB55_7:
	ldw r0, sp[2]
	ldc r1, 6
	lss r0, r0, r1
	bt r0, .LBB55_3
	bu .LBB55_8
.Ltmp53:
.LBB55_8:
.Lxtalabel32:
	mkmsk r0, 1
	.loc	1 115 0
	stw r0, sp[3]
.Ltmp54:
.LBB55_9:
	ldw r0, sp[3]
	retsp 7
.Ltmp55:
	.size	is_broadcast, .Ltmp55-is_broadcast
.Lfunc_end55:
.Ltmp56:
	.cfi_endproc
.Leh_func_end55:

	.align	4
	.cc_bottom is_broadcast.function
	.set	is_broadcast.nstackwords,7
	.globl	is_broadcast.nstackwords
	.set	is_broadcast.maxcores,1
	.globl	is_broadcast.maxcores
	.set	is_broadcast.maxtimers,0
	.globl	is_broadcast.maxtimers
	.set	is_broadcast.maxchanends,0
	.globl	is_broadcast.maxchanends
	.cc_top mac_custom_filter.function
	.globl	mac_custom_filter
	.align	4
	.type	mac_custom_filter,@function
mac_custom_filter:
.Ltmp58:
	.cfi_startproc
.Lfunc_begin56:
	.loc	1 119 0
	entsp 9
.Ltmp59:
	.cfi_def_cfa_offset 36
.Ltmp60:
	.cfi_offset 15, 0
	stw r0, sp[4]
	stw r1, sp[3]
	ldw r0, sp[4]
	stw r0, sp[7]
	ldw r1, sp[3]
	stw r1, sp[6]
.Lxtalabel33:
	.loc	1 120 0 prologue_end
.Ltmp61:
	ldw r0, sp[6]
	ldw r1, sp[7]
	ldc r3, 2
	shl r2, r0, 2
	.loc	1 120 0
	ldaw r0, dp[ethertype_arp0]
	stw r0, sp[2]
	mov r0, r1
	ldw r1, sp[2]
.Lxta.call_labels24:
	bl is_ethertype
	.loc	1 120 0
	bf r0, .LBB56_5
	bu .LBB56_3
.LBB56_3:
.Lxtalabel34:
	mkmsk r0, 1
	.loc	1 121 0
	stw r0, sp[5]
	bu .LBB56_8
.LBB56_4:
.Lxtalabel35:
	ldc r0, 0
	.loc	1 126 0
	stw r0, sp[5]
	bu .LBB56_8
.LBB56_5:
	.loc	1 122 0
	ldw r0, sp[6]
	ldw r1, sp[7]
	ldc r3, 2
	shl r2, r0, 2
	.loc	1 122 0
	ldaw r0, dp[ethertype_ip0]
	stw r0, sp[1]
	mov r0, r1
	ldw r1, sp[1]
.Lxta.call_labels25:
	bl is_ethertype
	.loc	1 122 0
	bf r0, .LBB56_7
	bu .LBB56_6
.LBB56_6:
.Lxtalabel36:
	mkmsk r0, 1
	.loc	1 123 0
	stw r0, sp[5]
	bu .LBB56_8
.LBB56_7:
	bu .LBB56_4
.Ltmp62:
.LBB56_8:
	ldw r0, sp[5]
	retsp 9
.Ltmp63:
	.size	mac_custom_filter, .Ltmp63-mac_custom_filter
.Lfunc_end56:
.Ltmp64:
	.cfi_endproc
.Leh_func_end56:

	.align	4
	.cc_bottom mac_custom_filter.function
	.set	mac_custom_filter.nstackwords,(is_ethertype.nstackwords + 9)
	.globl	mac_custom_filter.nstackwords
	.set	mac_custom_filter.maxcores,is_ethertype.maxcores $M 1
	.globl	mac_custom_filter.maxcores
	.set	mac_custom_filter.maxtimers,is_ethertype.maxtimers $M 0
	.globl	mac_custom_filter.maxtimers
	.set	mac_custom_filter.maxchanends,is_ethertype.maxchanends $M 0
	.globl	mac_custom_filter.maxchanends
	.cc_top _mac_custom_filter.function
	.globl	_mac_custom_filter
	.align	4
	.type	_mac_custom_filter,@function
_mac_custom_filter:
.Ltmp66:
	.cfi_startproc
.Lfunc_begin57:
	.loc	1 129 0
	entsp 9
.Ltmp67:
	.cfi_def_cfa_offset 36
.Ltmp68:
	.cfi_offset 15, 0
	stw r0, sp[4]
	stw r1, sp[3]
	ldw r0, sp[4]
	stw r0, sp[7]
	ldw r1, sp[3]
	stw r1, sp[6]
.Lxtalabel37:
	.loc	1 130 0 prologue_end
.Ltmp69:
	ldw r0, sp[6]
	ldw r1, sp[7]
	ldc r3, 2
	shl r2, r0, 2
	.loc	1 130 0
	ldaw r0, dp[ethertype_arp1]
	stw r0, sp[2]
	mov r0, r1
	ldw r1, sp[2]
.Lxta.call_labels26:
	bl is_ethertype
	.loc	1 130 0
	bf r0, .LBB57_5
	bu .LBB57_3
.LBB57_3:
.Lxtalabel38:
	mkmsk r0, 1
	.loc	1 131 0
	stw r0, sp[5]
	bu .LBB57_8
.LBB57_4:
.Lxtalabel39:
	ldc r0, 0
	.loc	1 136 0
	stw r0, sp[5]
	bu .LBB57_8
.LBB57_5:
	.loc	1 132 0
	ldw r0, sp[6]
	ldw r1, sp[7]
	ldc r3, 2
	shl r2, r0, 2
	.loc	1 132 0
	ldaw r0, dp[ethertype_ip1]
	stw r0, sp[1]
	mov r0, r1
	ldw r1, sp[1]
.Lxta.call_labels27:
	bl is_ethertype
	.loc	1 132 0
	bf r0, .LBB57_7
	bu .LBB57_6
.LBB57_6:
.Lxtalabel40:
	mkmsk r0, 1
	.loc	1 133 0
	stw r0, sp[5]
	bu .LBB57_8
.LBB57_7:
	bu .LBB57_4
.Ltmp70:
.LBB57_8:
	ldw r0, sp[5]
	retsp 9
.Ltmp71:
	.size	_mac_custom_filter, .Ltmp71-_mac_custom_filter
.Lfunc_end57:
.Ltmp72:
	.cfi_endproc
.Leh_func_end57:

	.align	4
	.cc_bottom _mac_custom_filter.function
	.set	_mac_custom_filter.nstackwords,(is_ethertype.nstackwords + 9)
	.globl	_mac_custom_filter.nstackwords
	.set	_mac_custom_filter.maxcores,is_ethertype.maxcores $M 1
	.globl	_mac_custom_filter.maxcores
	.set	_mac_custom_filter.maxtimers,is_ethertype.maxtimers $M 0
	.globl	_mac_custom_filter.maxtimers
	.set	_mac_custom_filter.maxchanends,is_ethertype.maxchanends $M 0
	.globl	_mac_custom_filter.maxchanends
	.cc_top build_arp_response0.function
	.section	.cp.rodata.cst4,"aMc",@progbits,4
	.cc_top .LCPI58_0.data
	.align	4
.LCPI58_0:
	.long	4294967232
	.cc_bottom .LCPI58_0.data
	.cc_top .LCPI58_1.data
	.align	4
.LCPI58_1:
	.long	4294967208
	.cc_bottom .LCPI58_1.data
	.cc_top .LCPI58_2.data
	.align	4
.LCPI58_2:
	.long	16778760
	.cc_bottom .LCPI58_2.data
	.cc_top .LCPI58_3.data
	.align	4
.LCPI58_3:
	.long	67502088
	.cc_bottom .LCPI58_3.data
	.text
	.globl	build_arp_response0
	.align	4
	.type	build_arp_response0,@function
build_arp_response0:
.Ltmp75:
	.cfi_startproc
.Lfunc_begin58:
	.loc	1 141 0
	entsp 49
.Ltmp76:
	.cfi_def_cfa_offset 196
.Ltmp77:
	.cfi_offset 15, 0
	stw r4, sp[48]
.Ltmp78:
	.cfi_offset 4, -4
	ldw r11, sp[50]
	stw r0, sp[33]
	stw r2, sp[32]
	stw r11, sp[31]
	stw r1, sp[30]
	stw r3, sp[29]
	ldw r0, sp[33]
	stw r0, sp[46]
	ldw r1, sp[29]
	stw r1, sp[45]
	ldw r2, sp[30]
	stw r2, sp[44]
	ldw r3, sp[31]
	stw r3, sp[43]
	ldw r11, sp[32]
	stw r11, sp[42]
.Lxtalabel41:
.Ltmp79:
	ldaw r0, sp[38]
	ldc r1, 2
	ldc r2, 0
	ldw r3, cp[.LCPI58_0]
	.loc	1 144 0 prologue_end
.Ltmp80:
	st8 r3, r0[r2]
	mkmsk r3, 1
	or r3, r0, r3
	ldw r11, cp[.LCPI58_1]
	st8 r11, r3[r2]
	or r1, r0, r1
	ldc r3, 101
	st8 r3, r1[r2]
	mkmsk r1, 2
	or r0, r0, r1
	ldc r1, 70
	st8 r1, r0[r2]
	.loc	1 146 0
.Ltmp81:
	stw r2, sp[37]
.Ltmp82:
	bu .LBB58_8
.LBB58_3:
.Lxtalabel42:
	.loc	1 148 0
	ldw r0, sp[45]
	ldw r1, sp[46]
	ldw r2, sp[37]
	ldc r3, 22
	add r2, r2, r3
	lsu r0, r2, r0
	stw r1, sp[28]
	stw r2, sp[27]
	ecallf r0
	bu .LBB58_4
.LBB58_4:
	ldaw r0, sp[39]
	ldw r1, sp[28]
	ldw r2, sp[27]
	ld8u r3, r1[r2]
	ldc r11, 0
	st8 r3, r0[r11]
	.loc	1 149 0
	ldw r0, sp[43]
	ldw r3, sp[44]
	ldw r11, sp[37]
	shl r0, r0, 2
	lsu r0, r11, r0
	stw r3, sp[26]
	stw r11, sp[25]
	ecallf r0
	bu .LBB58_5
.LBB58_5:
	ldaw r0, sp[39]
	ldc r1, 0
	ld8u r0, r0[r1]
	ldw r1, sp[26]
	ldw r2, sp[25]
	st8 r0, r1[r2]
	.loc	1 150 0
	ldw r0, sp[43]
	ldw r3, sp[44]
	ldw r11, sp[37]
	ldaw r11, r11[8]
	shl r0, r0, 2
	lsu r0, r11, r0
	stw r3, sp[24]
	stw r11, sp[23]
	ecallf r0
	bu .LBB58_6
.LBB58_6:
	ldaw r0, sp[39]
	ldc r1, 0
	ld8u r0, r0[r1]
	ldw r1, sp[24]
	ldw r2, sp[23]
	st8 r0, r1[r2]
	.loc	1 146 0
	ldw r0, sp[37]
	add r0, r0, 1
	stw r0, sp[37]
.Lxta.loop_labels4:
	# LOOPMARKER 3
.LBB58_8:
	ldw r0, sp[37]
	ldc r1, 6
	lss r0, r0, r1
	bt r0, .LBB58_3
	bu .LBB58_9
.Ltmp83:
.LBB58_9:
.Lxtalabel43:
	.loc	1 152 0
	ldw r0, sp[45]
	ldw r1, sp[46]
	shr r0, r0, 2
	ldc r2, 8
	lsu r0, r0, r2
	stw r1, sp[22]
	ecallt r0
	bu .LBB58_10
.LBB58_10:
	ldw r0, sp[22]
	ldw r1, r0[7]
	stw r1, sp[40]
	ldc r1, 0
	.loc	1 153 0
.Ltmp84:
	stw r1, sp[36]
.Ltmp85:
	bu .LBB58_14
.LBB58_11:
.Lxtalabel44:
	.loc	1 155 0
	ldw r0, sp[43]
	ldw r1, sp[44]
	ldw r2, sp[36]
	ldc r3, 38
	add r2, r2, r3
	shl r0, r0, 2
	lsu r0, r2, r0
	stw r1, sp[21]
	stw r2, sp[20]
	ecallf r0
	bu .LBB58_12
.LBB58_12:
	ldw r0, sp[40]
	ldw r1, sp[21]
	ldw r2, sp[20]
	st8 r0, r1[r2]
	.loc	1 156 0
	ldw r0, sp[40]
	shr r0, r0, 8
	stw r0, sp[40]
	.loc	1 153 0
	ldw r0, sp[36]
	add r0, r0, 1
	stw r0, sp[36]
.Lxta.loop_labels5:
	# LOOPMARKER 2
.LBB58_14:
	ldw r0, sp[36]
	ldc r1, 4
	lss r0, r0, r1
	bt r0, .LBB58_11
	bu .LBB58_15
.Ltmp86:
.LBB58_15:
.Lxtalabel45:
	.loc	1 159 0
	ldw r0, sp[43]
	ldw r1, sp[44]
	shl r0, r0, 2
	ldc r2, 29
	lsu r0, r0, r2
	stw r1, sp[19]
	ecallt r0
	bu .LBB58_16
.LBB58_16:
	ldc r0, 28
	ldaw r1, sp[38]
	ldc r2, 0
	ld8u r1, r1[r2]
	ldw r2, sp[19]
	st8 r1, r2[r0]
	.loc	1 160 0
	ldw r0, sp[43]
	ldw r1, sp[44]
	shl r0, r0, 2
	ldc r3, 30
	lsu r0, r0, r3
	stw r1, sp[18]
	ecallt r0
	bu .LBB58_17
.LBB58_17:
	ldc r0, 29
	ldaw r1, sp[38]
	mkmsk r2, 1
	or r1, r1, r2
	ldc r2, 0
	ld8u r1, r1[r2]
	ldw r2, sp[18]
	st8 r1, r2[r0]
	.loc	1 161 0
	ldw r0, sp[43]
	ldw r1, sp[44]
	shl r0, r0, 2
	mkmsk r3, 5
	lsu r0, r0, r3
	stw r1, sp[17]
	ecallt r0
	bu .LBB58_18
.LBB58_18:
	ldc r0, 30
	ldaw r1, sp[38]
	ldc r2, 2
	or r1, r1, r2
	ldc r2, 0
	ld8u r1, r1[r2]
	ldw r2, sp[17]
	st8 r1, r2[r0]
	.loc	1 162 0
	ldw r0, sp[43]
	ldw r1, sp[44]
	shl r0, r0, 2
	ldc r3, 32
	lsu r0, r0, r3
	stw r1, sp[16]
	ecallt r0
	bu .LBB58_19
.LBB58_19:
	ldaw r0, sp[38]
	mkmsk r1, 2
	or r0, r0, r1
	ldc r1, 0
	ld8u r0, r0[r1]
	mkmsk r2, 5
	ldw r3, sp[16]
	st8 r0, r3[r2]
	.loc	1 164 0
.Ltmp87:
	stw r1, sp[35]
.Ltmp88:
	bu .LBB58_26
.LBB58_20:
.Lxtalabel46:
	.loc	1 166 0
	ldw r0, sp[43]
	ldw r1, sp[44]
	ldw r2, sp[35]
	ldc r3, 22
	add r2, r2, r3
	shl r0, r0, 2
	lsu r0, r2, r0
	stw r2, sp[15]
	stw r1, sp[14]
	ecallf r0
	bu .LBB58_21
.LBB58_21:
	ldw r0, sp[14]
	ldw r1, sp[15]
	add r2, r0, r1
	ldw r3, sp[42]
	ldw r11, sp[35]
	ldc r4, 5
	lsu r4, r4, r11
	stw r3, sp[13]
	stw r2, sp[12]
	stw r11, sp[11]
	ecallt r4
	bu .LBB58_22
.LBB58_22:
	ldw r0, sp[13]
	ldw r1, sp[11]
	ld8u r2, r0[r1]
	ldc r3, 0
	ldw r11, sp[12]
	st8 r2, r11[r3]
	.loc	1 167 0
	ldw r2, sp[43]
	ldw r3, sp[44]
	ldw r4, sp[35]
	add r4, r4, 6
	shl r2, r2, 2
	lsu r2, r4, r2
	stw r3, sp[10]
	stw r4, sp[9]
	ecallf r2
	bu .LBB58_23
.LBB58_23:
	ldw r0, sp[10]
	ldw r1, sp[9]
	add r2, r0, r1
	ldw r3, sp[42]
	ldw r11, sp[35]
	ldc r4, 5
	lsu r4, r4, r11
	stw r3, sp[8]
	stw r2, sp[7]
	stw r11, sp[6]
	ecallt r4
	bu .LBB58_24
.LBB58_24:
	ldw r0, sp[8]
	ldw r1, sp[6]
	ld8u r2, r0[r1]
	ldc r3, 0
	ldw r11, sp[7]
	st8 r2, r11[r3]
	.loc	1 164 0
	ldw r0, sp[35]
	add r0, r0, 1
	stw r0, sp[35]
.Lxta.loop_labels6:
	# LOOPMARKER 1
.LBB58_26:
	ldw r0, sp[35]
	ldc r1, 6
	lss r0, r0, r1
	bt r0, .LBB58_20
	bu .LBB58_27
.Ltmp89:
.LBB58_27:
.Lxtalabel47:
	.loc	1 169 0
	ldw r0, sp[43]
	ldw r1, sp[44]
	ldc r2, 4
	lsu r0, r0, r2
	stw r1, sp[5]
	ecallt r0
	bu .LBB58_28
.LBB58_28:
	ldw r0, cp[.LCPI58_2]
	ldw r1, sp[5]
	stw r0, r1[3]
	.loc	1 170 0
	ldw r0, sp[43]
	ldw r2, sp[44]
	ldc r3, 5
	lsu r0, r0, r3
	stw r2, sp[4]
	ecallt r0
	bu .LBB58_29
.LBB58_29:
	ldw r0, cp[.LCPI58_3]
	ldw r1, sp[4]
	stw r0, r1[4]
	.loc	1 171 0
	ldw r0, sp[43]
	ldw r2, sp[44]
	shl r0, r0, 2
	ldc r3, 21
	lsu r0, r0, r3
	stw r2, sp[3]
	ecallt r0
	bu .LBB58_30
.LBB58_30:
	ldc r0, 20
	ldc r1, 0
	ldw r2, sp[3]
	st8 r1, r2[r0]
	.loc	1 172 0
	ldw r0, sp[43]
	ldw r1, sp[44]
	shl r0, r0, 2
	ldc r3, 22
	lsu r0, r0, r3
	stw r1, sp[2]
	ecallt r0
	bu .LBB58_31
.LBB58_31:
	ldc r0, 21
	ldc r1, 42
.Ltmp90:
	ldc r2, 2
	ldw r3, sp[2]
	st8 r2, r3[r0]
	.loc	1 175 0
.Ltmp91:
	stw r1, sp[34]
	bu .LBB58_35
.LBB58_32:
.Lxtalabel48:
	.loc	1 177 0
	ldw r0, sp[43]
	ldw r1, sp[44]
	ldw r2, sp[34]
	shl r0, r0, 2
	lsu r0, r2, r0
	stw r2, sp[1]
	stw r1, sp[0]
	ecallf r0
	bu .LBB58_33
.LBB58_33:
	ldc r0, 0
	ldw r1, sp[0]
	ldw r2, sp[1]
	st8 r0, r1[r2]
	.loc	1 175 0
	ldw r0, sp[34]
	add r0, r0, 1
	stw r0, sp[34]
.Lxta.loop_labels7:
	# LOOPMARKER 0
.LBB58_35:
	ldw r0, sp[34]
	ldc r1, 64
	lss r0, r0, r1
	bt r0, .LBB58_32
	bu .LBB58_36
.Ltmp92:
.LBB58_36:
.Lxtalabel49:
	ldc r0, 64
	.loc	1 180 0
	stw r0, sp[41]
.Ltmp93:
	ldw r0, sp[41]
	ldw r4, sp[48]
	retsp 49
.LBB58_38:
	ldc r0, 0
	ecallf r0
.Ltmp94:
	.size	build_arp_response0, .Ltmp94-build_arp_response0
.Lfunc_end58:
.Ltmp95:
	.cfi_endproc
.Leh_func_end58:

	.align	4
	.cc_bottom build_arp_response0.function
	.set	build_arp_response0.nstackwords,49
	.globl	build_arp_response0.nstackwords
	.set	build_arp_response0.maxcores,1
	.globl	build_arp_response0.maxcores
	.set	build_arp_response0.maxtimers,0
	.globl	build_arp_response0.maxtimers
	.set	build_arp_response0.maxchanends,0
	.globl	build_arp_response0.maxchanends
	.cc_top build_arp_response1.function
	.section	.cp.rodata.cst4,"aMc",@progbits,4
	.cc_top .LCPI59_0.data
	.align	4
.LCPI59_0:
	.long	4294967232
	.cc_bottom .LCPI59_0.data
	.cc_top .LCPI59_1.data
	.align	4
.LCPI59_1:
	.long	4294967208
	.cc_bottom .LCPI59_1.data
	.cc_top .LCPI59_2.data
	.align	4
.LCPI59_2:
	.long	16778760
	.cc_bottom .LCPI59_2.data
	.cc_top .LCPI59_3.data
	.align	4
.LCPI59_3:
	.long	67502088
	.cc_bottom .LCPI59_3.data
	.text
	.globl	build_arp_response1
	.align	4
	.type	build_arp_response1,@function
build_arp_response1:
.Ltmp98:
	.cfi_startproc
.Lfunc_begin59:
	.loc	1 184 0
	entsp 49
.Ltmp99:
	.cfi_def_cfa_offset 196
.Ltmp100:
	.cfi_offset 15, 0
	stw r4, sp[48]
.Ltmp101:
	.cfi_offset 4, -4
	ldw r11, sp[50]
	stw r0, sp[33]
	stw r2, sp[32]
	stw r11, sp[31]
	stw r1, sp[30]
	stw r3, sp[29]
	ldw r0, sp[33]
	stw r0, sp[46]
	ldw r1, sp[29]
	stw r1, sp[45]
	ldw r2, sp[30]
	stw r2, sp[44]
	ldw r3, sp[31]
	stw r3, sp[43]
	ldw r11, sp[32]
	stw r11, sp[42]
.Lxtalabel50:
.Ltmp102:
	ldaw r0, sp[38]
	ldc r1, 2
	ldc r2, 0
	ldw r3, cp[.LCPI59_0]
	.loc	1 187 0 prologue_end
.Ltmp103:
	st8 r3, r0[r2]
	mkmsk r3, 1
	or r3, r0, r3
	ldw r11, cp[.LCPI59_1]
	st8 r11, r3[r2]
	or r1, r0, r1
	ldc r3, 101
	st8 r3, r1[r2]
	mkmsk r1, 2
	or r0, r0, r1
	ldc r1, 70
	st8 r1, r0[r2]
	.loc	1 189 0
.Ltmp104:
	stw r2, sp[37]
.Ltmp105:
	bu .LBB59_8
.LBB59_3:
.Lxtalabel51:
	.loc	1 191 0
	ldw r0, sp[45]
	ldw r1, sp[46]
	ldw r2, sp[37]
	ldc r3, 22
	add r2, r2, r3
	lsu r0, r2, r0
	stw r1, sp[28]
	stw r2, sp[27]
	ecallf r0
	bu .LBB59_4
.LBB59_4:
	ldaw r0, sp[39]
	ldw r1, sp[28]
	ldw r2, sp[27]
	ld8u r3, r1[r2]
	ldc r11, 0
	st8 r3, r0[r11]
	.loc	1 192 0
	ldw r0, sp[43]
	ldw r3, sp[44]
	ldw r11, sp[37]
	shl r0, r0, 2
	lsu r0, r11, r0
	stw r3, sp[26]
	stw r11, sp[25]
	ecallf r0
	bu .LBB59_5
.LBB59_5:
	ldaw r0, sp[39]
	ldc r1, 0
	ld8u r0, r0[r1]
	ldw r1, sp[26]
	ldw r2, sp[25]
	st8 r0, r1[r2]
	.loc	1 193 0
	ldw r0, sp[43]
	ldw r3, sp[44]
	ldw r11, sp[37]
	ldaw r11, r11[8]
	shl r0, r0, 2
	lsu r0, r11, r0
	stw r3, sp[24]
	stw r11, sp[23]
	ecallf r0
	bu .LBB59_6
.LBB59_6:
	ldaw r0, sp[39]
	ldc r1, 0
	ld8u r0, r0[r1]
	ldw r1, sp[24]
	ldw r2, sp[23]
	st8 r0, r1[r2]
	.loc	1 189 0
	ldw r0, sp[37]
	add r0, r0, 1
	stw r0, sp[37]
.Lxta.loop_labels8:
	# LOOPMARKER 3
.LBB59_8:
	ldw r0, sp[37]
	ldc r1, 6
	lss r0, r0, r1
	bt r0, .LBB59_3
	bu .LBB59_9
.Ltmp106:
.LBB59_9:
.Lxtalabel52:
	.loc	1 195 0
	ldw r0, sp[45]
	ldw r1, sp[46]
	shr r0, r0, 2
	ldc r2, 8
	lsu r0, r0, r2
	stw r1, sp[22]
	ecallt r0
	bu .LBB59_10
.LBB59_10:
	ldw r0, sp[22]
	ldw r1, r0[7]
	stw r1, sp[40]
	ldc r1, 0
	.loc	1 196 0
.Ltmp107:
	stw r1, sp[36]
.Ltmp108:
	bu .LBB59_14
.LBB59_11:
.Lxtalabel53:
	.loc	1 198 0
	ldw r0, sp[43]
	ldw r1, sp[44]
	ldw r2, sp[36]
	ldc r3, 38
	add r2, r2, r3
	shl r0, r0, 2
	lsu r0, r2, r0
	stw r1, sp[21]
	stw r2, sp[20]
	ecallf r0
	bu .LBB59_12
.LBB59_12:
	ldw r0, sp[40]
	ldw r1, sp[21]
	ldw r2, sp[20]
	st8 r0, r1[r2]
	.loc	1 199 0
	ldw r0, sp[40]
	shr r0, r0, 8
	stw r0, sp[40]
	.loc	1 196 0
	ldw r0, sp[36]
	add r0, r0, 1
	stw r0, sp[36]
.Lxta.loop_labels9:
	# LOOPMARKER 2
.LBB59_14:
	ldw r0, sp[36]
	ldc r1, 4
	lss r0, r0, r1
	bt r0, .LBB59_11
	bu .LBB59_15
.Ltmp109:
.LBB59_15:
.Lxtalabel54:
	.loc	1 202 0
	ldw r0, sp[43]
	ldw r1, sp[44]
	shl r0, r0, 2
	ldc r2, 29
	lsu r0, r0, r2
	stw r1, sp[19]
	ecallt r0
	bu .LBB59_16
.LBB59_16:
	ldc r0, 28
	ldaw r1, sp[38]
	ldc r2, 0
	ld8u r1, r1[r2]
	ldw r2, sp[19]
	st8 r1, r2[r0]
	.loc	1 203 0
	ldw r0, sp[43]
	ldw r1, sp[44]
	shl r0, r0, 2
	ldc r3, 30
	lsu r0, r0, r3
	stw r1, sp[18]
	ecallt r0
	bu .LBB59_17
.LBB59_17:
	ldc r0, 29
	ldaw r1, sp[38]
	mkmsk r2, 1
	or r1, r1, r2
	ldc r2, 0
	ld8u r1, r1[r2]
	ldw r2, sp[18]
	st8 r1, r2[r0]
	.loc	1 204 0
	ldw r0, sp[43]
	ldw r1, sp[44]
	shl r0, r0, 2
	mkmsk r3, 5
	lsu r0, r0, r3
	stw r1, sp[17]
	ecallt r0
	bu .LBB59_18
.LBB59_18:
	ldc r0, 30
	ldaw r1, sp[38]
	ldc r2, 2
	or r1, r1, r2
	ldc r2, 0
	ld8u r1, r1[r2]
	ldw r2, sp[17]
	st8 r1, r2[r0]
	.loc	1 205 0
	ldw r0, sp[43]
	ldw r1, sp[44]
	shl r0, r0, 2
	ldc r3, 32
	lsu r0, r0, r3
	stw r1, sp[16]
	ecallt r0
	bu .LBB59_19
.LBB59_19:
	ldaw r0, sp[38]
	mkmsk r1, 2
	or r0, r0, r1
	ldc r1, 0
	ld8u r0, r0[r1]
	mkmsk r2, 5
	ldw r3, sp[16]
	st8 r0, r3[r2]
	.loc	1 207 0
.Ltmp110:
	stw r1, sp[35]
.Ltmp111:
	bu .LBB59_26
.LBB59_20:
.Lxtalabel55:
	.loc	1 209 0
	ldw r0, sp[43]
	ldw r1, sp[44]
	ldw r2, sp[35]
	ldc r3, 22
	add r2, r2, r3
	shl r0, r0, 2
	lsu r0, r2, r0
	stw r2, sp[15]
	stw r1, sp[14]
	ecallf r0
	bu .LBB59_21
.LBB59_21:
	ldw r0, sp[14]
	ldw r1, sp[15]
	add r2, r0, r1
	ldw r3, sp[42]
	ldw r11, sp[35]
	ldc r4, 5
	lsu r4, r4, r11
	stw r3, sp[13]
	stw r2, sp[12]
	stw r11, sp[11]
	ecallt r4
	bu .LBB59_22
.LBB59_22:
	ldw r0, sp[13]
	ldw r1, sp[11]
	ld8u r2, r0[r1]
	ldc r3, 0
	ldw r11, sp[12]
	st8 r2, r11[r3]
	.loc	1 210 0
	ldw r2, sp[43]
	ldw r3, sp[44]
	ldw r4, sp[35]
	add r4, r4, 6
	shl r2, r2, 2
	lsu r2, r4, r2
	stw r3, sp[10]
	stw r4, sp[9]
	ecallf r2
	bu .LBB59_23
.LBB59_23:
	ldw r0, sp[10]
	ldw r1, sp[9]
	add r2, r0, r1
	ldw r3, sp[42]
	ldw r11, sp[35]
	ldc r4, 5
	lsu r4, r4, r11
	stw r3, sp[8]
	stw r2, sp[7]
	stw r11, sp[6]
	ecallt r4
	bu .LBB59_24
.LBB59_24:
	ldw r0, sp[8]
	ldw r1, sp[6]
	ld8u r2, r0[r1]
	ldc r3, 0
	ldw r11, sp[7]
	st8 r2, r11[r3]
	.loc	1 207 0
	ldw r0, sp[35]
	add r0, r0, 1
	stw r0, sp[35]
.Lxta.loop_labels10:
	# LOOPMARKER 1
.LBB59_26:
	ldw r0, sp[35]
	ldc r1, 6
	lss r0, r0, r1
	bt r0, .LBB59_20
	bu .LBB59_27
.Ltmp112:
.LBB59_27:
.Lxtalabel56:
	.loc	1 212 0
	ldw r0, sp[43]
	ldw r1, sp[44]
	ldc r2, 4
	lsu r0, r0, r2
	stw r1, sp[5]
	ecallt r0
	bu .LBB59_28
.LBB59_28:
	ldw r0, cp[.LCPI59_2]
	ldw r1, sp[5]
	stw r0, r1[3]
	.loc	1 213 0
	ldw r0, sp[43]
	ldw r2, sp[44]
	ldc r3, 5
	lsu r0, r0, r3
	stw r2, sp[4]
	ecallt r0
	bu .LBB59_29
.LBB59_29:
	ldw r0, cp[.LCPI59_3]
	ldw r1, sp[4]
	stw r0, r1[4]
	.loc	1 214 0
	ldw r0, sp[43]
	ldw r2, sp[44]
	shl r0, r0, 2
	ldc r3, 21
	lsu r0, r0, r3
	stw r2, sp[3]
	ecallt r0
	bu .LBB59_30
.LBB59_30:
	ldc r0, 20
	ldc r1, 0
	ldw r2, sp[3]
	st8 r1, r2[r0]
	.loc	1 215 0
	ldw r0, sp[43]
	ldw r1, sp[44]
	shl r0, r0, 2
	ldc r3, 22
	lsu r0, r0, r3
	stw r1, sp[2]
	ecallt r0
	bu .LBB59_31
.LBB59_31:
	ldc r0, 21
	ldc r1, 42
.Ltmp113:
	ldc r2, 2
	ldw r3, sp[2]
	st8 r2, r3[r0]
	.loc	1 218 0
.Ltmp114:
	stw r1, sp[34]
	bu .LBB59_35
.LBB59_32:
.Lxtalabel57:
	.loc	1 220 0
	ldw r0, sp[43]
	ldw r1, sp[44]
	ldw r2, sp[34]
	shl r0, r0, 2
	lsu r0, r2, r0
	stw r2, sp[1]
	stw r1, sp[0]
	ecallf r0
	bu .LBB59_33
.LBB59_33:
	ldc r0, 0
	ldw r1, sp[0]
	ldw r2, sp[1]
	st8 r0, r1[r2]
	.loc	1 218 0
	ldw r0, sp[34]
	add r0, r0, 1
	stw r0, sp[34]
.Lxta.loop_labels11:
	# LOOPMARKER 0
.LBB59_35:
	ldw r0, sp[34]
	ldc r1, 64
	lss r0, r0, r1
	bt r0, .LBB59_32
	bu .LBB59_36
.Ltmp115:
.LBB59_36:
.Lxtalabel58:
	ldc r0, 64
	.loc	1 223 0
	stw r0, sp[41]
.Ltmp116:
	ldw r0, sp[41]
	ldw r4, sp[48]
	retsp 49
.LBB59_38:
	ldc r0, 0
	ecallf r0
.Ltmp117:
	.size	build_arp_response1, .Ltmp117-build_arp_response1
.Lfunc_end59:
.Ltmp118:
	.cfi_endproc
.Leh_func_end59:

	.align	4
	.cc_bottom build_arp_response1.function
	.set	build_arp_response1.nstackwords,49
	.globl	build_arp_response1.nstackwords
	.set	build_arp_response1.maxcores,1
	.globl	build_arp_response1.maxcores
	.set	build_arp_response1.maxtimers,0
	.globl	build_arp_response1.maxtimers
	.set	build_arp_response1.maxchanends,0
	.globl	build_arp_response1.maxchanends
	.cc_top is_valid_arp_packet0.function
	.section	.cp.rodata.cst4,"aMc",@progbits,4
	.cc_top .LCPI60_0.data
	.align	4
.LCPI60_0:
	.long	16778760
	.cc_bottom .LCPI60_0.data
	.cc_top .LCPI60_1.data
	.align	4
.LCPI60_1:
	.long	67502088
	.cc_bottom .LCPI60_1.data
	.text
	.globl	is_valid_arp_packet0
	.align	4
	.type	is_valid_arp_packet0,@function
is_valid_arp_packet0:
.Ltmp120:
	.cfi_startproc
.Lfunc_begin60:
	.loc	1 227 0
	entsp 25
.Ltmp121:
	.cfi_def_cfa_offset 100
.Ltmp122:
	.cfi_offset 15, 0
	stw r2, sp[17]
	stw r1, sp[16]
	stw r0, sp[15]
	ldw r0, sp[15]
	stw r0, sp[23]
	ldw r1, sp[17]
	stw r1, sp[22]
	ldw r2, sp[16]
	stw r2, sp[21]
.Lxtalabel59:
	.loc	1 230 0 prologue_end
.Ltmp123:
	ldw r0, sp[22]
	ldw r1, sp[23]
	ldc r2, 12
	lsu r0, r2, r0
	stw r1, sp[14]
	ecallf r0
	bu .LBB60_5
.LBB60_3:
.Lxtalabel60:
	ldc r0, 0
	.loc	1 231 0
	stw r0, sp[20]
	bu .LBB60_28
.LBB60_4:
.Lxtalabel61:
	ldc r1, 21
	.loc	1 233 0
	ldaw r0, dp[.str]
.Lxta.call_labels28:
	bl printstr
	.loc	1 235 0
	ldw r1, sp[22]
	ldw r2, sp[23]
	shr r1, r1, 2
	mkmsk r3, 2
	lsu r1, r3, r1
	stw r0, sp[13]
	stw r2, sp[12]
	ecallf r1
	bu .LBB60_13
.LBB60_5:
	ldc r0, 12
	.loc	1 230 0
	ldw r1, sp[14]
	ld8u r0, r1[r0]
	eq r0, r0, 8
	bf r0, .LBB60_8
	bu .LBB60_7
.LBB60_6:
	ldc r0, 0
	stw r0, sp[19]
	bu .LBB60_9
.LBB60_7:
	ldw r0, sp[22]
	ldw r1, sp[23]
	ldc r2, 13
	lsu r0, r2, r0
	stw r1, sp[11]
	ecallf r0
	bu .LBB60_10
.LBB60_8:
	mkmsk r0, 1
	stw r0, sp[19]
.LBB60_9:
	ldw r0, sp[19]
	bt r0, .LBB60_3
	bu .LBB60_4
.LBB60_10:
	ldc r0, 13
	ldw r1, sp[11]
	ld8u r0, r1[r0]
	eq r0, r0, 6
	bf r0, .LBB60_8
	bu .LBB60_6
.LBB60_11:
.Lxtalabel62:
	ldc r1, 18
	.loc	1 237 0
	ldaw r0, dp[.str1]
.Lxta.call_labels29:
	bl printstr
	ldc r1, 0
	.loc	1 238 0
	stw r1, sp[20]
	stw r0, sp[10]
	bu .LBB60_28
.LBB60_12:
.Lxtalabel63:
	.loc	1 240 0
	ldw r0, sp[22]
	ldw r1, sp[23]
	ldc r2, 4
	shr r0, r0, 2
	lsu r0, r2, r0
	stw r1, sp[9]
	ecallf r0
	bu .LBB60_16
.LBB60_13:
	.loc	1 235 0
	ldw r0, sp[12]
	ldw r1, r0[3]
	ldw r2, cp[.LCPI60_0]
	eq r1, r1, r2
	bf r1, .LBB60_11
	bu .LBB60_12
.LBB60_14:
.Lxtalabel64:
	ldc r1, 20
	.loc	1 242 0
	ldaw r0, dp[.str2]
.Lxta.call_labels30:
	bl printstr
	ldc r1, 0
	.loc	1 243 0
	stw r1, sp[20]
	stw r0, sp[8]
	bu .LBB60_28
.LBB60_15:
.Lxtalabel65:
	.loc	1 245 0
	ldw r0, sp[22]
	ldw r1, sp[23]
	ldc r2, 5
	shr r0, r0, 2
	lsu r0, r2, r0
	stw r1, sp[7]
	ecallf r0
	bu .LBB60_19
.LBB60_16:
	.loc	1 240 0
	ldw r0, sp[9]
	ldw r1, r0[4]
	ldw r2, cp[.LCPI60_1]
	eq r1, r1, r2
	bf r1, .LBB60_14
	bu .LBB60_15
.LBB60_17:
.Lxtalabel66:
	.loc	1 247 0
	ldaw r0, dp[.str3]
	mkmsk r1, 4
.Lxta.call_labels31:
	bl printstr
	ldc r1, 0
	.loc	1 248 0
	stw r1, sp[20]
	stw r0, sp[6]
	bu .LBB60_28
.LBB60_18:
.Lxtalabel67:
	ldc r0, 0
	.loc	1 250 0
.Ltmp124:
	stw r0, sp[18]
.Ltmp125:
	bu .LBB60_26
.Ltmp126:
.LBB60_19:
	.loc	1 245 0
	ldw r0, sp[7]
	ldaw r1, r0[5]
	ldc r2, 256
	ldc r3, 0
	ld16s r1, r1[r3]
	zext r1, 16
	eq r1, r1, r2
	bf r1, .LBB60_17
	bu .LBB60_18
.LBB60_20:
.Lxtalabel68:
	.loc	1 252 0
.Ltmp127:
	ldw r0, sp[22]
	ldw r1, sp[23]
	ldw r2, sp[18]
	ldc r3, 38
	add r2, r2, r3
	lsu r0, r2, r0
	stw r2, sp[5]
	stw r1, sp[4]
	ecallf r0
	bu .LBB60_23
.LBB60_21:
.Lxtalabel69:
	ldc r1, 12
	.loc	1 254 0
	ldaw r0, dp[.str4]
.Lxta.call_labels32:
	bl printstr
	ldc r1, 0
	.loc	1 255 0
	stw r1, sp[20]
	stw r0, sp[3]
	bu .LBB60_28
.LBB60_22:
.Lxtalabel70:
	bu .LBB60_25
.LBB60_23:
	.loc	1 252 0
	ldw r0, sp[18]
	ldw r1, sp[4]
	ldw r2, sp[5]
	ld8u r3, r1[r2]
	mkmsk r11, 2
	lsu r11, r11, r0
	stw r3, sp[2]
	stw r0, sp[1]
	ecallt r11
	bu .LBB60_24
.LBB60_24:
	ldaw r0, dp[own_ip_addr.static]
	ldw r1, sp[1]
	ld8u r0, r0[r1]
	ldw r2, sp[2]
	zext r2, 8
	eq r0, r2, r0
	bf r0, .LBB60_21
	bu .LBB60_22
.LBB60_25:
	.loc	1 250 0
	ldw r0, sp[18]
	add r0, r0, 1
	stw r0, sp[18]
.Lxta.loop_labels12:
	# LOOPMARKER 0
.LBB60_26:
	ldw r0, sp[18]
	ldc r1, 4
	lss r0, r0, r1
	bt r0, .LBB60_20
	bu .LBB60_27
.Ltmp128:
.LBB60_27:
.Lxtalabel71:
	mkmsk r0, 1
	.loc	1 259 0
	stw r0, sp[20]
.Ltmp129:
.LBB60_28:
	ldw r0, sp[20]
	retsp 25
.LBB60_29:
	ldc r0, 0
	ecallf r0
.Ltmp130:
	.size	is_valid_arp_packet0, .Ltmp130-is_valid_arp_packet0
.Lfunc_end60:
.Ltmp131:
	.cfi_endproc
.Leh_func_end60:

	.align	4
	.cc_bottom is_valid_arp_packet0.function
	.set	is_valid_arp_packet0.nstackwords,(printstr.nstackwords + 25)
	.globl	is_valid_arp_packet0.nstackwords
	.set	is_valid_arp_packet0.maxcores,printstr.maxcores $M 1
	.globl	is_valid_arp_packet0.maxcores
	.set	is_valid_arp_packet0.maxtimers,printstr.maxtimers $M 0
	.globl	is_valid_arp_packet0.maxtimers
	.set	is_valid_arp_packet0.maxchanends,printstr.maxchanends $M 0
	.globl	is_valid_arp_packet0.maxchanends
	.cc_top is_valid_arp_packet1.function
	.section	.cp.rodata.cst4,"aMc",@progbits,4
	.cc_top .LCPI61_0.data
	.align	4
.LCPI61_0:
	.long	16778760
	.cc_bottom .LCPI61_0.data
	.cc_top .LCPI61_1.data
	.align	4
.LCPI61_1:
	.long	67502088
	.cc_bottom .LCPI61_1.data
	.text
	.globl	is_valid_arp_packet1
	.align	4
	.type	is_valid_arp_packet1,@function
is_valid_arp_packet1:
.Ltmp133:
	.cfi_startproc
.Lfunc_begin61:
	.loc	1 263 0
	entsp 22
.Ltmp134:
	.cfi_def_cfa_offset 88
.Ltmp135:
	.cfi_offset 15, 0
	stw r2, sp[14]
	stw r1, sp[13]
	stw r0, sp[12]
	ldw r0, sp[12]
	stw r0, sp[20]
	ldw r1, sp[14]
	stw r1, sp[19]
	ldw r2, sp[13]
	stw r2, sp[18]
.Lxtalabel72:
	.loc	1 266 0 prologue_end
.Ltmp136:
	ldw r0, sp[19]
	ldw r1, sp[20]
	ldc r2, 12
	lsu r0, r2, r0
	stw r1, sp[11]
	ecallf r0
	bu .LBB61_5
.LBB61_3:
.Lxtalabel73:
	ldc r0, 0
	.loc	1 267 0
	stw r0, sp[17]
	bu .LBB61_28
.LBB61_4:
.Lxtalabel74:
	ldc r1, 21
	.loc	1 269 0
	ldaw r0, dp[.str6]
.Lxta.call_labels33:
	bl printstr
	.loc	1 271 0
	ldw r1, sp[19]
	ldw r2, sp[20]
	shr r1, r1, 2
	mkmsk r3, 2
	lsu r1, r3, r1
	stw r0, sp[10]
	stw r2, sp[9]
	ecallf r1
	bu .LBB61_13
.LBB61_5:
	ldc r0, 12
	.loc	1 266 0
	ldw r1, sp[11]
	ld8u r0, r1[r0]
	eq r0, r0, 8
	bf r0, .LBB61_8
	bu .LBB61_7
.LBB61_6:
	ldc r0, 0
	stw r0, sp[16]
	bu .LBB61_9
.LBB61_7:
	ldw r0, sp[19]
	ldw r1, sp[20]
	ldc r2, 13
	lsu r0, r2, r0
	stw r1, sp[8]
	ecallf r0
	bu .LBB61_10
.LBB61_8:
	mkmsk r0, 1
	stw r0, sp[16]
.LBB61_9:
	ldw r0, sp[16]
	bt r0, .LBB61_3
	bu .LBB61_4
.LBB61_10:
	ldc r0, 13
	ldw r1, sp[8]
	ld8u r0, r1[r0]
	eq r0, r0, 6
	bf r0, .LBB61_8
	bu .LBB61_6
.LBB61_11:
.Lxtalabel75:
	ldc r0, 0
	.loc	1 274 0
	stw r0, sp[17]
	bu .LBB61_28
.LBB61_12:
.Lxtalabel76:
	.loc	1 276 0
	ldw r0, sp[19]
	ldw r1, sp[20]
	ldc r2, 4
	shr r0, r0, 2
	lsu r0, r2, r0
	stw r1, sp[7]
	ecallf r0
	bu .LBB61_16
.LBB61_13:
	.loc	1 271 0
	ldw r0, sp[9]
	ldw r1, r0[3]
	ldw r2, cp[.LCPI61_0]
	eq r1, r1, r2
	bf r1, .LBB61_11
	bu .LBB61_12
.LBB61_14:
.Lxtalabel77:
	ldc r0, 0
	.loc	1 279 0
	stw r0, sp[17]
	bu .LBB61_28
.LBB61_15:
.Lxtalabel78:
	.loc	1 281 0
	ldw r0, sp[19]
	ldw r1, sp[20]
	ldc r2, 5
	shr r0, r0, 2
	lsu r0, r2, r0
	stw r1, sp[6]
	ecallf r0
	bu .LBB61_19
.LBB61_16:
	.loc	1 276 0
	ldw r0, sp[7]
	ldw r1, r0[4]
	ldw r2, cp[.LCPI61_1]
	eq r1, r1, r2
	bf r1, .LBB61_14
	bu .LBB61_15
.LBB61_17:
.Lxtalabel79:
	ldc r0, 0
	.loc	1 284 0
	stw r0, sp[17]
	bu .LBB61_28
.LBB61_18:
.Lxtalabel80:
	ldc r0, 0
	.loc	1 286 0
.Ltmp137:
	stw r0, sp[15]
.Ltmp138:
	bu .LBB61_26
.Ltmp139:
.LBB61_19:
	.loc	1 281 0
	ldw r0, sp[6]
	ldaw r1, r0[5]
	ldc r2, 256
	ldc r3, 0
	ld16s r1, r1[r3]
	zext r1, 16
	eq r1, r1, r2
	bf r1, .LBB61_17
	bu .LBB61_18
.LBB61_20:
.Lxtalabel81:
	.loc	1 288 0
.Ltmp140:
	ldw r0, sp[19]
	ldw r1, sp[20]
	ldw r2, sp[15]
	ldc r3, 38
	add r2, r2, r3
	lsu r0, r2, r0
	stw r2, sp[5]
	stw r1, sp[4]
	ecallf r0
	bu .LBB61_23
.LBB61_21:
.Lxtalabel82:
	ldc r1, 12
	.loc	1 290 0
	ldaw r0, dp[.str7]
.Lxta.call_labels34:
	bl printstr
	ldc r1, 0
	.loc	1 291 0
	stw r1, sp[17]
	stw r0, sp[3]
	bu .LBB61_28
.LBB61_22:
.Lxtalabel83:
	bu .LBB61_25
.LBB61_23:
	.loc	1 288 0
	ldw r0, sp[15]
	ldw r1, sp[4]
	ldw r2, sp[5]
	ld8u r3, r1[r2]
	mkmsk r11, 2
	lsu r11, r11, r0
	stw r3, sp[2]
	stw r0, sp[1]
	ecallt r11
	bu .LBB61_24
.LBB61_24:
	ldaw r0, dp[own_ip_addr.static5]
	ldw r1, sp[1]
	ld8u r0, r0[r1]
	ldw r2, sp[2]
	zext r2, 8
	eq r0, r2, r0
	bf r0, .LBB61_21
	bu .LBB61_22
.LBB61_25:
	.loc	1 286 0
	ldw r0, sp[15]
	add r0, r0, 1
	stw r0, sp[15]
.Lxta.loop_labels13:
	# LOOPMARKER 0
.LBB61_26:
	ldw r0, sp[15]
	ldc r1, 4
	lss r0, r0, r1
	bt r0, .LBB61_20
	bu .LBB61_27
.Ltmp141:
.LBB61_27:
.Lxtalabel84:
	mkmsk r0, 1
	.loc	1 295 0
	stw r0, sp[17]
.Ltmp142:
.LBB61_28:
	ldw r0, sp[17]
	retsp 22
.LBB61_29:
	ldc r0, 0
	ecallf r0
.Ltmp143:
	.size	is_valid_arp_packet1, .Ltmp143-is_valid_arp_packet1
.Lfunc_end61:
.Ltmp144:
	.cfi_endproc
.Leh_func_end61:

	.align	4
	.cc_bottom is_valid_arp_packet1.function
	.set	is_valid_arp_packet1.nstackwords,(printstr.nstackwords + 22)
	.globl	is_valid_arp_packet1.nstackwords
	.set	is_valid_arp_packet1.maxcores,printstr.maxcores $M 1
	.globl	is_valid_arp_packet1.maxcores
	.set	is_valid_arp_packet1.maxtimers,printstr.maxtimers $M 0
	.globl	is_valid_arp_packet1.maxtimers
	.set	is_valid_arp_packet1.maxchanends,printstr.maxchanends $M 0
	.globl	is_valid_arp_packet1.maxchanends
	.cc_top build_icmp_response0.function
	.section	.cp.rodata.cst4,"aMc",@progbits,4
	.cc_top .LCPI62_0.data
	.align	4
.LCPI62_0:
	.long	4521992
	.cc_bottom .LCPI62_0.data
	.cc_top .LCPI62_1.data
	.align	4
.LCPI62_1:
	.long	16777216
	.cc_bottom .LCPI62_1.data
	.text
	.globl	build_icmp_response0
	.align	4
	.type	build_icmp_response0,@function
build_icmp_response0:
.Ltmp148:
	.cfi_startproc
.Lfunc_begin62:
	.loc	1 299 0
	entsp 75
.Ltmp149:
	.cfi_def_cfa_offset 300
.Ltmp150:
	.cfi_offset 15, 0
	stw r4, sp[74]
.Ltmp151:
	.cfi_offset 4, -4
	stw r5, sp[73]
.Ltmp152:
	.cfi_offset 5, -8
	ldw r11, sp[76]
	stw r1, sp[53]
	stw r3, sp[52]
	stw r0, sp[51]
	stw r2, sp[50]
	stw r11, sp[49]
	ldw r0, sp[51]
	stw r0, sp[71]
	ldw r1, sp[52]
	stw r1, sp[70]
	ldw r2, sp[53]
	stw r2, sp[69]
	ldw r3, sp[49]
	stw r3, sp[68]
	ldw r11, sp[50]
	stw r11, sp[67]
.Lxtalabel85:
.Ltmp153:
	ldc r0, 64
	.loc	1 304 0 prologue_end
.Ltmp154:
	stw r0, sp[62]
	ldc r0, 389
.Ltmp155:
	.loc	1 308 0
	stw r0, sp[60]
	ldc r0, 0
	.loc	1 310 0
.Ltmp156:
	stw r0, sp[59]
.Ltmp157:
	bu .LBB62_7
.LBB62_3:
.Lxtalabel86:
	.loc	1 312 0
	ldw r0, sp[68]
	ldw r1, sp[69]
	ldw r2, sp[59]
	lsu r0, r2, r0
	stw r1, sp[48]
	stw r2, sp[47]
	ecallf r0
	bu .LBB62_4
.LBB62_4:
	ldw r0, sp[48]
	ldw r1, sp[47]
	add r2, r0, r1
	ldw r3, sp[70]
	ldw r11, sp[71]
	ldw r4, sp[59]
	add r4, r4, 6
	lsu r3, r4, r3
	stw r2, sp[46]
	stw r4, sp[45]
	stw r11, sp[44]
	ecallf r3
	bu .LBB62_5
.LBB62_5:
	ldw r0, sp[44]
	ldw r1, sp[45]
	ld8u r2, r0[r1]
	ldc r3, 0
	ldw r11, sp[46]
	st8 r2, r11[r3]
	.loc	1 310 0
	ldw r0, sp[59]
	add r0, r0, 1
	stw r0, sp[59]
.Lxta.loop_labels14:
	# LOOPMARKER 7
.LBB62_7:
	ldw r0, sp[59]
	ldc r1, 6
	lss r0, r0, r1
	bt r0, .LBB62_3
	bu .LBB62_8
.Ltmp158:
.LBB62_8:
.Lxtalabel87:
	ldc r0, 0
	.loc	1 314 0
.Ltmp159:
	stw r0, sp[58]
.Ltmp160:
	bu .LBB62_13
.LBB62_9:
.Lxtalabel88:
	.loc	1 316 0
	ldw r0, sp[68]
	ldw r1, sp[69]
	ldw r2, sp[58]
	ldc r3, 30
	add r2, r2, r3
	lsu r0, r2, r0
	stw r2, sp[43]
	stw r1, sp[42]
	ecallf r0
	bu .LBB62_10
.LBB62_10:
	ldw r0, sp[42]
	ldw r1, sp[43]
	add r2, r0, r1
	ldw r3, sp[70]
	ldw r11, sp[71]
	ldw r4, sp[58]
	ldc r5, 26
	add r4, r4, r5
	lsu r3, r4, r3
	stw r2, sp[41]
	stw r4, sp[40]
	stw r11, sp[39]
	ecallf r3
	bu .LBB62_11
.LBB62_11:
	ldw r0, sp[39]
	ldw r1, sp[40]
	ld8u r2, r0[r1]
	ldc r3, 0
	ldw r11, sp[41]
	st8 r2, r11[r3]
	.loc	1 314 0
	ldw r0, sp[58]
	add r0, r0, 1
	stw r0, sp[58]
.Lxta.loop_labels15:
	# LOOPMARKER 6
.LBB62_13:
	ldw r0, sp[58]
	ldc r1, 4
	lss r0, r0, r1
	bt r0, .LBB62_9
	bu .LBB62_14
.Ltmp161:
.LBB62_14:
.Lxtalabel89:
	.loc	1 318 0
	ldw r0, sp[70]
	ldw r1, sp[71]
	shr r0, r0, 2
	ldc r2, 10
	lsu r0, r0, r2
	stw r1, sp[38]
	ecallt r0
	bu .LBB62_15
.LBB62_15:
	ldw r0, sp[38]
	ldw r1, r0[9]
	byterev r1, r1
	shr r1, r1, 16
	stw r1, sp[65]
	ldc r1, 0
	.loc	1 319 0
.Ltmp162:
	stw r1, sp[57]
.Ltmp163:
	bu .LBB62_20
.LBB62_16:
.Lxtalabel90:
	.loc	1 321 0
	ldw r0, sp[68]
	ldw r1, sp[69]
	ldw r2, sp[57]
	ldc r3, 38
	add r2, r2, r3
	lsu r0, r2, r0
	stw r1, sp[37]
	stw r2, sp[36]
	ecallf r0
	bu .LBB62_17
.LBB62_17:
	ldw r0, sp[37]
	ldw r1, sp[36]
	add r2, r0, r1
	ldw r3, sp[70]
	ldw r11, sp[71]
	ldw r4, sp[57]
	ldc r5, 38
	add r4, r4, r5
	lsu r3, r4, r3
	stw r11, sp[35]
	stw r2, sp[34]
	stw r4, sp[33]
	ecallf r3
	bu .LBB62_18
.LBB62_18:
	ldw r0, sp[35]
	ldw r1, sp[33]
	ld8u r2, r0[r1]
	ldc r3, 0
	ldw r11, sp[34]
	st8 r2, r11[r3]
	.loc	1 319 0
	ldw r0, sp[57]
	add r0, r0, 1
	stw r0, sp[57]
.Lxta.loop_labels16:
	# LOOPMARKER 5
.LBB62_20:
	ldw r0, sp[57]
	ldc r1, 4
	lss r0, r0, r1
	bt r0, .LBB62_16
	bu .LBB62_21
.Ltmp164:
.LBB62_21:
.Lxtalabel91:
	.loc	1 323 0
	ldw r0, sp[70]
	ldw r1, sp[71]
	shr r0, r0, 2
	ldc r2, 5
	lsu r0, r0, r2
	stw r1, sp[32]
	ecallt r0
	bu .LBB62_22
.LBB62_22:
	ldw r0, sp[32]
	ldw r1, r0[4]
	byterev r1, r1
	shr r1, r1, 16
	stw r1, sp[63]
	.loc	1 324 0
	ldaw r1, r1[-7]
	stw r1, sp[64]
	ldc r1, 0
	.loc	1 325 0
.Ltmp165:
	stw r1, sp[56]
.Ltmp166:
	bu .LBB62_27
.LBB62_23:
.Lxtalabel92:
	.loc	1 327 0
	ldw r0, sp[68]
	ldw r1, sp[69]
	ldw r2, sp[56]
	ldc r3, 42
	add r2, r2, r3
	lsu r0, r2, r0
	stw r2, sp[31]
	stw r1, sp[30]
	ecallf r0
	bu .LBB62_24
.LBB62_24:
	ldw r0, sp[30]
	ldw r1, sp[31]
	add r2, r0, r1
	ldw r3, sp[70]
	ldw r11, sp[71]
	ldw r4, sp[56]
	ldc r5, 42
	add r4, r4, r5
	lsu r3, r4, r3
	stw r4, sp[29]
	stw r11, sp[28]
	stw r2, sp[27]
	ecallf r3
	bu .LBB62_25
.LBB62_25:
	ldw r0, sp[28]
	ldw r1, sp[29]
	ld8u r2, r0[r1]
	ldc r3, 0
	ldw r11, sp[27]
	st8 r2, r11[r3]
	.loc	1 325 0
	ldw r0, sp[56]
	add r0, r0, 1
	stw r0, sp[56]
.Lxta.loop_labels17:
	# LOOPMARKER 4
.LBB62_27:
	ldw r0, sp[56]
	ldw r1, sp[64]
	lss r0, r0, r1
	bt r0, .LBB62_23
	bu .LBB62_28
.Ltmp167:
.LBB62_28:
.Lxtalabel93:
	ldc r0, 0
	.loc	1 330 0
.Ltmp168:
	stw r0, sp[55]
.Ltmp169:
	bu .LBB62_33
.LBB62_29:
.Lxtalabel94:
	.loc	1 332 0
	ldw r0, sp[68]
	ldw r1, sp[69]
	ldw r2, sp[55]
	add r2, r2, 6
	lsu r0, r2, r0
	stw r2, sp[26]
	stw r1, sp[25]
	ecallf r0
	bu .LBB62_30
.LBB62_30:
	ldw r0, sp[25]
	ldw r1, sp[26]
	add r2, r0, r1
	ldw r3, sp[67]
	ldw r11, sp[55]
	ldc r4, 5
	lsu r4, r4, r11
	stw r11, sp[24]
	stw r3, sp[23]
	stw r2, sp[22]
	ecallt r4
	bu .LBB62_31
.LBB62_31:
	ldw r0, sp[23]
	ldw r1, sp[24]
	ld8u r2, r0[r1]
	ldc r3, 0
	ldw r11, sp[22]
	st8 r2, r11[r3]
	.loc	1 330 0
	ldw r0, sp[55]
	add r0, r0, 1
	stw r0, sp[55]
.Lxta.loop_labels18:
	# LOOPMARKER 3
.LBB62_33:
	ldw r0, sp[55]
	ldc r1, 6
	lss r0, r0, r1
	bt r0, .LBB62_29
	bu .LBB62_34
.Ltmp170:
.LBB62_34:
.Lxtalabel95:
	.loc	1 334 0
	ldw r0, sp[68]
	ldw r1, sp[69]
	shr r0, r0, 2
	ldc r2, 4
	lsu r0, r0, r2
	stw r1, sp[21]
	ecallt r0
	bu .LBB62_35
.LBB62_35:
	ldw r0, cp[.LCPI62_0]
	ldw r1, sp[21]
	stw r0, r1[3]
	.loc	1 335 0
	ldw r0, sp[64]
	ldaw r0, r0[7]
	byterev r0, r0
	shr r0, r0, 16
	stw r0, sp[63]
	.loc	1 336 0
	ldw r0, sp[68]
	ldw r2, sp[69]
	shr r0, r0, 2
	ldc r3, 5
	lsu r0, r0, r3
	stw r2, sp[20]
	ecallt r0
	bu .LBB62_36
.LBB62_36:
	ldw r0, sp[63]
	ldw r1, sp[20]
	stw r0, r1[4]
	.loc	1 337 0
	ldw r0, sp[63]
	ldw r2, sp[60]
	add r0, r2, r0
	stw r0, sp[60]
	.loc	1 338 0
	ldw r0, sp[68]
	ldw r2, sp[69]
	shr r0, r0, 2
	ldc r3, 6
	lsu r0, r0, r3
	stw r2, sp[19]
	ecallt r0
	bu .LBB62_37
.LBB62_37:
	ldw r0, sp[62]
	shl r0, r0, 16
	ldw r1, cp[.LCPI62_1]
	or r0, r0, r1
	ldw r1, sp[19]
	stw r0, r1[5]
	.loc	1 339 0
	ldw r0, sp[68]
	ldw r2, sp[69]
	shr r0, r0, 2
	mkmsk r3, 3
	lsu r0, r0, r3
	stw r2, sp[18]
	ecallt r0
	bu .LBB62_38
.LBB62_38:
	ldc r0, 0
	ldw r1, sp[18]
	stw r0, r1[6]
	.loc	1 340 0
.Ltmp171:
	stw r0, sp[54]
.Ltmp172:
	bu .LBB62_43
.LBB62_39:
.Lxtalabel96:
	.loc	1 342 0
	ldw r0, sp[68]
	ldw r1, sp[69]
	ldw r2, sp[54]
	ldc r3, 26
	add r2, r2, r3
	lsu r0, r2, r0
	stw r2, sp[17]
	stw r1, sp[16]
	ecallf r0
	bu .LBB62_40
.LBB62_40:
	ldw r0, sp[16]
	ldw r1, sp[17]
	add r2, r0, r1
	ldw r3, sp[54]
	mkmsk r11, 2
	lsu r11, r11, r3
	stw r2, sp[15]
	stw r3, sp[14]
	ecallt r11
	bu .LBB62_41
.LBB62_41:
	ldaw r0, dp[own_ip_addr.static8]
	ldw r1, sp[14]
	ld8u r0, r0[r1]
	ldc r2, 0
	ldw r3, sp[15]
	st8 r0, r3[r2]
	.loc	1 340 0
	ldw r0, sp[54]
	add r0, r0, 1
	stw r0, sp[54]
.Lxta.loop_labels19:
	# LOOPMARKER 2
.LBB62_43:
	ldw r0, sp[54]
	ldc r1, 4
	lss r0, r0, r1
	bt r0, .LBB62_39
	bu .LBB62_44
.Ltmp173:
.LBB62_44:
.Lxtalabel97:
	mkmsk r0, 1
	.loc	1 344 0
	ldaw r1, dp[own_ip_addr.static8]
	ld8u r0, r1[r0]
	shl r0, r0, 8
	ldc r2, 0
	ld8u r2, r1[r2]
	or r0, r2, r0
	ldw r2, sp[60]
	add r0, r2, r0
	stw r0, sp[60]
	ldc r2, 2
	mkmsk r3, 2
	.loc	1 345 0
	ld8u r3, r1[r3]
	shl r3, r3, 8
	ld8u r1, r1[r2]
	or r1, r1, r3
	add r0, r0, r1
	stw r0, sp[60]
	.loc	1 346 0
	ldw r0, sp[68]
	ldw r1, sp[69]
	mkmsk r2, 5
	lsu r0, r0, r2
	stw r1, sp[13]
	ecallt r0
	bu .LBB62_45
.LBB62_45:
	ldc r0, 30
	ldw r1, sp[68]
	ldw r2, sp[69]
	ldw r3, sp[13]
	ld8u r0, r3[r0]
	ldc r11, 32
	lsu r1, r1, r11
	stw r2, sp[12]
	stw r0, sp[11]
	ecallt r1
	bu .LBB62_46
.LBB62_46:
	mkmsk r0, 5
	ldw r1, sp[12]
	ld8u r0, r1[r0]
	shl r0, r0, 8
	ldw r2, sp[11]
	zext r2, 8
	or r0, r2, r0
	ldw r2, sp[60]
	add r0, r2, r0
	stw r0, sp[60]
	.loc	1 347 0
	ldw r0, sp[68]
	ldw r2, sp[69]
	ldc r3, 33
	lsu r0, r0, r3
	stw r2, sp[10]
	ecallt r0
	bu .LBB62_47
.LBB62_47:
	ldc r0, 32
	ldw r1, sp[68]
	ldw r2, sp[69]
	ldw r3, sp[10]
	ld8u r0, r3[r0]
	ldc r11, 34
	lsu r1, r1, r11
	stw r2, sp[9]
	stw r0, sp[8]
	ecallt r1
	bu .LBB62_48
.LBB62_48:
	ldc r0, 33
	ldw r1, sp[9]
	ld8u r0, r1[r0]
	shl r0, r0, 8
	ldw r2, sp[8]
	zext r2, 8
	or r0, r2, r0
	ldw r2, sp[60]
	add r0, r2, r0
	stw r0, sp[60]
	.loc	1 349 0
	ldw r0, sp[68]
	ldw r2, sp[69]
	ldc r3, 35
	lsu r0, r0, r3
	stw r2, sp[7]
	ecallt r0
	bu .LBB62_49
.LBB62_49:
	ldc r0, 34
	ldc r1, 0
	ldw r2, sp[7]
	st8 r1, r2[r0]
	.loc	1 350 0
	ldw r0, sp[68]
	ldw r1, sp[69]
	ldc r3, 36
	lsu r0, r0, r3
	stw r1, sp[6]
	ecallt r0
	bu .LBB62_50
.LBB62_50:
	ldc r0, 35
	ldc r1, 0
	ldw r2, sp[6]
	st8 r1, r2[r0]
	.loc	1 352 0
	ldw r0, sp[65]
	ldc r1, 2048
	add r0, r0, r1
	stw r0, sp[65]
	.loc	1 353 0
	shr r1, r0, 16
	add r0, r0, r1
	stw r0, sp[65]
	.loc	1 354 0
	ldw r0, sp[68]
	ldw r1, sp[69]
	ldc r3, 37
	lsu r0, r0, r3
	stw r1, sp[5]
	ecallt r0
	bu .LBB62_51
.LBB62_51:
	ldc r0, 36
	ldw r1, sp[65]
	shr r1, r1, 8
	ldw r2, sp[5]
	st8 r1, r2[r0]
	.loc	1 355 0
	ldw r0, sp[68]
	ldw r1, sp[69]
	ldc r3, 38
	lsu r0, r0, r3
	stw r1, sp[4]
	ecallt r0
	bu .LBB62_52
.LBB62_52:
	ldc r0, 37
	ldw r1, sp[65]
	ldw r2, sp[4]
	st8 r1, r2[r0]
	.loc	1 357 0
	bu .LBB62_54
.LBB62_53:
.Lxtalabel98:
	.loc	1 359 0
	ldw r0, sp[60]
	shr r1, r0, 16
	zext r0, 16
	add r0, r0, r1
	stw r0, sp[60]
.Lxta.loop_labels20:
	# LOOPMARKER 1
.LBB62_54:
	ldaw r0, sp[60]
	ldc r1, 2
	.loc	1 357 0
	or r0, r0, r1
	ldc r1, 0
	ld16s r0, r0[r1]
	zext r0, 16
	bt r0, .LBB62_53
	bu .LBB62_55
.LBB62_55:
.Lxtalabel99:
	.loc	1 361 0
	ldw r0, sp[60]
	not r0, r0
	byterev r0, r0
	shr r0, r0, 16
	stw r0, sp[60]
	.loc	1 362 0
	ldw r0, sp[68]
	ldw r1, sp[69]
	ldc r2, 25
	lsu r0, r0, r2
	stw r1, sp[3]
	ecallt r0
	bu .LBB62_56
.LBB62_56:
	ldc r0, 24
	ldw r1, sp[60]
	shr r1, r1, 8
	ldw r2, sp[3]
	st8 r1, r2[r0]
	.loc	1 363 0
	ldw r0, sp[68]
	ldw r1, sp[69]
	ldc r3, 26
	lsu r0, r0, r3
	stw r1, sp[2]
	ecallt r0
	bu .LBB62_57
.LBB62_57:
	ldc r0, 25
	ldw r1, sp[60]
	ldw r2, sp[2]
	st8 r1, r2[r0]
	.loc	1 365 0
	ldw r0, sp[64]
	ldc r1, 42
	add r0, r0, r1
	stw r0, sp[61]
	bu .LBB62_61
.LBB62_58:
.Lxtalabel100:
	.loc	1 367 0
	ldw r0, sp[68]
	ldw r1, sp[69]
	ldw r2, sp[61]
	lsu r0, r2, r0
	stw r1, sp[1]
	stw r2, sp[0]
	ecallf r0
	bu .LBB62_59
.LBB62_59:
	ldc r0, 0
	ldw r1, sp[1]
	ldw r2, sp[0]
	st8 r0, r1[r2]
	.loc	1 365 0
	ldw r0, sp[61]
	add r0, r0, 1
	stw r0, sp[61]
.Lxta.loop_labels21:
	# LOOPMARKER 0
.LBB62_61:
	ldw r0, sp[61]
	ldc r1, 64
	lss r0, r0, r1
	bt r0, .LBB62_58
	bu .LBB62_62
.LBB62_62:
.Lxtalabel101:
	.loc	1 369 0
	ldw r0, sp[61]
	stw r0, sp[66]
.Ltmp174:
	ldw r0, sp[66]
	ldw r5, sp[73]
	ldw r4, sp[74]
	retsp 75
.LBB62_64:
	ldc r0, 0
	ecallf r0
.Ltmp175:
	.size	build_icmp_response0, .Ltmp175-build_icmp_response0
.Lfunc_end62:
.Ltmp176:
	.cfi_endproc
.Leh_func_end62:

	.align	4
	.cc_bottom build_icmp_response0.function
	.set	build_icmp_response0.nstackwords,75
	.globl	build_icmp_response0.nstackwords
	.set	build_icmp_response0.maxcores,1
	.globl	build_icmp_response0.maxcores
	.set	build_icmp_response0.maxtimers,0
	.globl	build_icmp_response0.maxtimers
	.set	build_icmp_response0.maxchanends,0
	.globl	build_icmp_response0.maxchanends
	.cc_top build_icmp_response1.function
	.section	.cp.rodata.cst4,"aMc",@progbits,4
	.cc_top .LCPI63_0.data
	.align	4
.LCPI63_0:
	.long	4521992
	.cc_bottom .LCPI63_0.data
	.cc_top .LCPI63_1.data
	.align	4
.LCPI63_1:
	.long	16777216
	.cc_bottom .LCPI63_1.data
	.text
	.globl	build_icmp_response1
	.align	4
	.type	build_icmp_response1,@function
build_icmp_response1:
.Ltmp180:
	.cfi_startproc
.Lfunc_begin63:
	.loc	1 373 0
	entsp 75
.Ltmp181:
	.cfi_def_cfa_offset 300
.Ltmp182:
	.cfi_offset 15, 0
	stw r4, sp[74]
.Ltmp183:
	.cfi_offset 4, -4
	stw r5, sp[73]
.Ltmp184:
	.cfi_offset 5, -8
	ldw r11, sp[76]
	stw r1, sp[53]
	stw r3, sp[52]
	stw r0, sp[51]
	stw r2, sp[50]
	stw r11, sp[49]
	ldw r0, sp[51]
	stw r0, sp[71]
	ldw r1, sp[52]
	stw r1, sp[70]
	ldw r2, sp[53]
	stw r2, sp[69]
	ldw r3, sp[49]
	stw r3, sp[68]
	ldw r11, sp[50]
	stw r11, sp[67]
.Lxtalabel102:
.Ltmp185:
	ldc r0, 64
	.loc	1 378 0 prologue_end
.Ltmp186:
	stw r0, sp[62]
	ldc r0, 389
.Ltmp187:
	.loc	1 382 0
	stw r0, sp[60]
	ldc r0, 0
	.loc	1 384 0
.Ltmp188:
	stw r0, sp[59]
.Ltmp189:
	bu .LBB63_7
.LBB63_3:
.Lxtalabel103:
	.loc	1 386 0
	ldw r0, sp[68]
	ldw r1, sp[69]
	ldw r2, sp[59]
	lsu r0, r2, r0
	stw r1, sp[48]
	stw r2, sp[47]
	ecallf r0
	bu .LBB63_4
.LBB63_4:
	ldw r0, sp[48]
	ldw r1, sp[47]
	add r2, r0, r1
	ldw r3, sp[70]
	ldw r11, sp[71]
	ldw r4, sp[59]
	add r4, r4, 6
	lsu r3, r4, r3
	stw r2, sp[46]
	stw r4, sp[45]
	stw r11, sp[44]
	ecallf r3
	bu .LBB63_5
.LBB63_5:
	ldw r0, sp[44]
	ldw r1, sp[45]
	ld8u r2, r0[r1]
	ldc r3, 0
	ldw r11, sp[46]
	st8 r2, r11[r3]
	.loc	1 384 0
	ldw r0, sp[59]
	add r0, r0, 1
	stw r0, sp[59]
.Lxta.loop_labels22:
	# LOOPMARKER 7
.LBB63_7:
	ldw r0, sp[59]
	ldc r1, 6
	lss r0, r0, r1
	bt r0, .LBB63_3
	bu .LBB63_8
.Ltmp190:
.LBB63_8:
.Lxtalabel104:
	ldc r0, 0
	.loc	1 388 0
.Ltmp191:
	stw r0, sp[58]
.Ltmp192:
	bu .LBB63_13
.LBB63_9:
.Lxtalabel105:
	.loc	1 390 0
	ldw r0, sp[68]
	ldw r1, sp[69]
	ldw r2, sp[58]
	ldc r3, 30
	add r2, r2, r3
	lsu r0, r2, r0
	stw r2, sp[43]
	stw r1, sp[42]
	ecallf r0
	bu .LBB63_10
.LBB63_10:
	ldw r0, sp[42]
	ldw r1, sp[43]
	add r2, r0, r1
	ldw r3, sp[70]
	ldw r11, sp[71]
	ldw r4, sp[58]
	ldc r5, 26
	add r4, r4, r5
	lsu r3, r4, r3
	stw r2, sp[41]
	stw r4, sp[40]
	stw r11, sp[39]
	ecallf r3
	bu .LBB63_11
.LBB63_11:
	ldw r0, sp[39]
	ldw r1, sp[40]
	ld8u r2, r0[r1]
	ldc r3, 0
	ldw r11, sp[41]
	st8 r2, r11[r3]
	.loc	1 388 0
	ldw r0, sp[58]
	add r0, r0, 1
	stw r0, sp[58]
.Lxta.loop_labels23:
	# LOOPMARKER 6
.LBB63_13:
	ldw r0, sp[58]
	ldc r1, 4
	lss r0, r0, r1
	bt r0, .LBB63_9
	bu .LBB63_14
.Ltmp193:
.LBB63_14:
.Lxtalabel106:
	.loc	1 392 0
	ldw r0, sp[70]
	ldw r1, sp[71]
	shr r0, r0, 2
	ldc r2, 10
	lsu r0, r0, r2
	stw r1, sp[38]
	ecallt r0
	bu .LBB63_15
.LBB63_15:
	ldw r0, sp[38]
	ldw r1, r0[9]
	byterev r1, r1
	shr r1, r1, 16
	stw r1, sp[65]
	ldc r1, 0
	.loc	1 393 0
.Ltmp194:
	stw r1, sp[57]
.Ltmp195:
	bu .LBB63_20
.LBB63_16:
.Lxtalabel107:
	.loc	1 395 0
	ldw r0, sp[68]
	ldw r1, sp[69]
	ldw r2, sp[57]
	ldc r3, 38
	add r2, r2, r3
	lsu r0, r2, r0
	stw r1, sp[37]
	stw r2, sp[36]
	ecallf r0
	bu .LBB63_17
.LBB63_17:
	ldw r0, sp[37]
	ldw r1, sp[36]
	add r2, r0, r1
	ldw r3, sp[70]
	ldw r11, sp[71]
	ldw r4, sp[57]
	ldc r5, 38
	add r4, r4, r5
	lsu r3, r4, r3
	stw r11, sp[35]
	stw r2, sp[34]
	stw r4, sp[33]
	ecallf r3
	bu .LBB63_18
.LBB63_18:
	ldw r0, sp[35]
	ldw r1, sp[33]
	ld8u r2, r0[r1]
	ldc r3, 0
	ldw r11, sp[34]
	st8 r2, r11[r3]
	.loc	1 393 0
	ldw r0, sp[57]
	add r0, r0, 1
	stw r0, sp[57]
.Lxta.loop_labels24:
	# LOOPMARKER 5
.LBB63_20:
	ldw r0, sp[57]
	ldc r1, 4
	lss r0, r0, r1
	bt r0, .LBB63_16
	bu .LBB63_21
.Ltmp196:
.LBB63_21:
.Lxtalabel108:
	.loc	1 397 0
	ldw r0, sp[70]
	ldw r1, sp[71]
	shr r0, r0, 2
	ldc r2, 5
	lsu r0, r0, r2
	stw r1, sp[32]
	ecallt r0
	bu .LBB63_22
.LBB63_22:
	ldw r0, sp[32]
	ldw r1, r0[4]
	byterev r1, r1
	shr r1, r1, 16
	stw r1, sp[63]
	.loc	1 398 0
	ldaw r1, r1[-7]
	stw r1, sp[64]
	ldc r1, 0
	.loc	1 399 0
.Ltmp197:
	stw r1, sp[56]
.Ltmp198:
	bu .LBB63_27
.LBB63_23:
.Lxtalabel109:
	.loc	1 401 0
	ldw r0, sp[68]
	ldw r1, sp[69]
	ldw r2, sp[56]
	ldc r3, 42
	add r2, r2, r3
	lsu r0, r2, r0
	stw r2, sp[31]
	stw r1, sp[30]
	ecallf r0
	bu .LBB63_24
.LBB63_24:
	ldw r0, sp[30]
	ldw r1, sp[31]
	add r2, r0, r1
	ldw r3, sp[70]
	ldw r11, sp[71]
	ldw r4, sp[56]
	ldc r5, 42
	add r4, r4, r5
	lsu r3, r4, r3
	stw r4, sp[29]
	stw r11, sp[28]
	stw r2, sp[27]
	ecallf r3
	bu .LBB63_25
.LBB63_25:
	ldw r0, sp[28]
	ldw r1, sp[29]
	ld8u r2, r0[r1]
	ldc r3, 0
	ldw r11, sp[27]
	st8 r2, r11[r3]
	.loc	1 399 0
	ldw r0, sp[56]
	add r0, r0, 1
	stw r0, sp[56]
.Lxta.loop_labels25:
	# LOOPMARKER 4
.LBB63_27:
	ldw r0, sp[56]
	ldw r1, sp[64]
	lss r0, r0, r1
	bt r0, .LBB63_23
	bu .LBB63_28
.Ltmp199:
.LBB63_28:
.Lxtalabel110:
	ldc r0, 0
	.loc	1 404 0
.Ltmp200:
	stw r0, sp[55]
.Ltmp201:
	bu .LBB63_33
.LBB63_29:
.Lxtalabel111:
	.loc	1 406 0
	ldw r0, sp[68]
	ldw r1, sp[69]
	ldw r2, sp[55]
	add r2, r2, 6
	lsu r0, r2, r0
	stw r2, sp[26]
	stw r1, sp[25]
	ecallf r0
	bu .LBB63_30
.LBB63_30:
	ldw r0, sp[25]
	ldw r1, sp[26]
	add r2, r0, r1
	ldw r3, sp[67]
	ldw r11, sp[55]
	ldc r4, 5
	lsu r4, r4, r11
	stw r11, sp[24]
	stw r3, sp[23]
	stw r2, sp[22]
	ecallt r4
	bu .LBB63_31
.LBB63_31:
	ldw r0, sp[23]
	ldw r1, sp[24]
	ld8u r2, r0[r1]
	ldc r3, 0
	ldw r11, sp[22]
	st8 r2, r11[r3]
	.loc	1 404 0
	ldw r0, sp[55]
	add r0, r0, 1
	stw r0, sp[55]
.Lxta.loop_labels26:
	# LOOPMARKER 3
.LBB63_33:
	ldw r0, sp[55]
	ldc r1, 6
	lss r0, r0, r1
	bt r0, .LBB63_29
	bu .LBB63_34
.Ltmp202:
.LBB63_34:
.Lxtalabel112:
	.loc	1 408 0
	ldw r0, sp[68]
	ldw r1, sp[69]
	shr r0, r0, 2
	ldc r2, 4
	lsu r0, r0, r2
	stw r1, sp[21]
	ecallt r0
	bu .LBB63_35
.LBB63_35:
	ldw r0, cp[.LCPI63_0]
	ldw r1, sp[21]
	stw r0, r1[3]
	.loc	1 409 0
	ldw r0, sp[64]
	ldaw r0, r0[7]
	byterev r0, r0
	shr r0, r0, 16
	stw r0, sp[63]
	.loc	1 410 0
	ldw r0, sp[68]
	ldw r2, sp[69]
	shr r0, r0, 2
	ldc r3, 5
	lsu r0, r0, r3
	stw r2, sp[20]
	ecallt r0
	bu .LBB63_36
.LBB63_36:
	ldw r0, sp[63]
	ldw r1, sp[20]
	stw r0, r1[4]
	.loc	1 411 0
	ldw r0, sp[63]
	ldw r2, sp[60]
	add r0, r2, r0
	stw r0, sp[60]
	.loc	1 412 0
	ldw r0, sp[68]
	ldw r2, sp[69]
	shr r0, r0, 2
	ldc r3, 6
	lsu r0, r0, r3
	stw r2, sp[19]
	ecallt r0
	bu .LBB63_37
.LBB63_37:
	ldw r0, sp[62]
	shl r0, r0, 16
	ldw r1, cp[.LCPI63_1]
	or r0, r0, r1
	ldw r1, sp[19]
	stw r0, r1[5]
	.loc	1 413 0
	ldw r0, sp[68]
	ldw r2, sp[69]
	shr r0, r0, 2
	mkmsk r3, 3
	lsu r0, r0, r3
	stw r2, sp[18]
	ecallt r0
	bu .LBB63_38
.LBB63_38:
	ldc r0, 0
	ldw r1, sp[18]
	stw r0, r1[6]
	.loc	1 414 0
.Ltmp203:
	stw r0, sp[54]
.Ltmp204:
	bu .LBB63_43
.LBB63_39:
.Lxtalabel113:
	.loc	1 416 0
	ldw r0, sp[68]
	ldw r1, sp[69]
	ldw r2, sp[54]
	ldc r3, 26
	add r2, r2, r3
	lsu r0, r2, r0
	stw r2, sp[17]
	stw r1, sp[16]
	ecallf r0
	bu .LBB63_40
.LBB63_40:
	ldw r0, sp[16]
	ldw r1, sp[17]
	add r2, r0, r1
	ldw r3, sp[54]
	mkmsk r11, 2
	lsu r11, r11, r3
	stw r2, sp[15]
	stw r3, sp[14]
	ecallt r11
	bu .LBB63_41
.LBB63_41:
	ldaw r0, dp[own_ip_addr.static9]
	ldw r1, sp[14]
	ld8u r0, r0[r1]
	ldc r2, 0
	ldw r3, sp[15]
	st8 r0, r3[r2]
	.loc	1 414 0
	ldw r0, sp[54]
	add r0, r0, 1
	stw r0, sp[54]
.Lxta.loop_labels27:
	# LOOPMARKER 2
.LBB63_43:
	ldw r0, sp[54]
	ldc r1, 4
	lss r0, r0, r1
	bt r0, .LBB63_39
	bu .LBB63_44
.Ltmp205:
.LBB63_44:
.Lxtalabel114:
	mkmsk r0, 1
	.loc	1 418 0
	ldaw r1, dp[own_ip_addr.static9]
	ld8u r0, r1[r0]
	shl r0, r0, 8
	ldc r2, 0
	ld8u r2, r1[r2]
	or r0, r2, r0
	ldw r2, sp[60]
	add r0, r2, r0
	stw r0, sp[60]
	ldc r2, 2
	mkmsk r3, 2
	.loc	1 419 0
	ld8u r3, r1[r3]
	shl r3, r3, 8
	ld8u r1, r1[r2]
	or r1, r1, r3
	add r0, r0, r1
	stw r0, sp[60]
	.loc	1 420 0
	ldw r0, sp[68]
	ldw r1, sp[69]
	mkmsk r2, 5
	lsu r0, r0, r2
	stw r1, sp[13]
	ecallt r0
	bu .LBB63_45
.LBB63_45:
	ldc r0, 30
	ldw r1, sp[68]
	ldw r2, sp[69]
	ldw r3, sp[13]
	ld8u r0, r3[r0]
	ldc r11, 32
	lsu r1, r1, r11
	stw r2, sp[12]
	stw r0, sp[11]
	ecallt r1
	bu .LBB63_46
.LBB63_46:
	mkmsk r0, 5
	ldw r1, sp[12]
	ld8u r0, r1[r0]
	shl r0, r0, 8
	ldw r2, sp[11]
	zext r2, 8
	or r0, r2, r0
	ldw r2, sp[60]
	add r0, r2, r0
	stw r0, sp[60]
	.loc	1 421 0
	ldw r0, sp[68]
	ldw r2, sp[69]
	ldc r3, 33
	lsu r0, r0, r3
	stw r2, sp[10]
	ecallt r0
	bu .LBB63_47
.LBB63_47:
	ldc r0, 32
	ldw r1, sp[68]
	ldw r2, sp[69]
	ldw r3, sp[10]
	ld8u r0, r3[r0]
	ldc r11, 34
	lsu r1, r1, r11
	stw r2, sp[9]
	stw r0, sp[8]
	ecallt r1
	bu .LBB63_48
.LBB63_48:
	ldc r0, 33
	ldw r1, sp[9]
	ld8u r0, r1[r0]
	shl r0, r0, 8
	ldw r2, sp[8]
	zext r2, 8
	or r0, r2, r0
	ldw r2, sp[60]
	add r0, r2, r0
	stw r0, sp[60]
	.loc	1 423 0
	ldw r0, sp[68]
	ldw r2, sp[69]
	ldc r3, 35
	lsu r0, r0, r3
	stw r2, sp[7]
	ecallt r0
	bu .LBB63_49
.LBB63_49:
	ldc r0, 34
	ldc r1, 0
	ldw r2, sp[7]
	st8 r1, r2[r0]
	.loc	1 424 0
	ldw r0, sp[68]
	ldw r1, sp[69]
	ldc r3, 36
	lsu r0, r0, r3
	stw r1, sp[6]
	ecallt r0
	bu .LBB63_50
.LBB63_50:
	ldc r0, 35
	ldc r1, 0
	ldw r2, sp[6]
	st8 r1, r2[r0]
	.loc	1 426 0
	ldw r0, sp[65]
	ldc r1, 2048
	add r0, r0, r1
	stw r0, sp[65]
	.loc	1 427 0
	shr r1, r0, 16
	add r0, r0, r1
	stw r0, sp[65]
	.loc	1 428 0
	ldw r0, sp[68]
	ldw r1, sp[69]
	ldc r3, 37
	lsu r0, r0, r3
	stw r1, sp[5]
	ecallt r0
	bu .LBB63_51
.LBB63_51:
	ldc r0, 36
	ldw r1, sp[65]
	shr r1, r1, 8
	ldw r2, sp[5]
	st8 r1, r2[r0]
	.loc	1 429 0
	ldw r0, sp[68]
	ldw r1, sp[69]
	ldc r3, 38
	lsu r0, r0, r3
	stw r1, sp[4]
	ecallt r0
	bu .LBB63_52
.LBB63_52:
	ldc r0, 37
	ldw r1, sp[65]
	ldw r2, sp[4]
	st8 r1, r2[r0]
	.loc	1 431 0
	bu .LBB63_54
.LBB63_53:
.Lxtalabel115:
	.loc	1 433 0
	ldw r0, sp[60]
	shr r1, r0, 16
	zext r0, 16
	add r0, r0, r1
	stw r0, sp[60]
.Lxta.loop_labels28:
	# LOOPMARKER 1
.LBB63_54:
	ldaw r0, sp[60]
	ldc r1, 2
	.loc	1 431 0
	or r0, r0, r1
	ldc r1, 0
	ld16s r0, r0[r1]
	zext r0, 16
	bt r0, .LBB63_53
	bu .LBB63_55
.LBB63_55:
.Lxtalabel116:
	.loc	1 435 0
	ldw r0, sp[60]
	not r0, r0
	byterev r0, r0
	shr r0, r0, 16
	stw r0, sp[60]
	.loc	1 436 0
	ldw r0, sp[68]
	ldw r1, sp[69]
	ldc r2, 25
	lsu r0, r0, r2
	stw r1, sp[3]
	ecallt r0
	bu .LBB63_56
.LBB63_56:
	ldc r0, 24
	ldw r1, sp[60]
	shr r1, r1, 8
	ldw r2, sp[3]
	st8 r1, r2[r0]
	.loc	1 437 0
	ldw r0, sp[68]
	ldw r1, sp[69]
	ldc r3, 26
	lsu r0, r0, r3
	stw r1, sp[2]
	ecallt r0
	bu .LBB63_57
.LBB63_57:
	ldc r0, 25
	ldw r1, sp[60]
	ldw r2, sp[2]
	st8 r1, r2[r0]
	.loc	1 439 0
	ldw r0, sp[64]
	ldc r1, 42
	add r0, r0, r1
	stw r0, sp[61]
	bu .LBB63_61
.LBB63_58:
.Lxtalabel117:
	.loc	1 441 0
	ldw r0, sp[68]
	ldw r1, sp[69]
	ldw r2, sp[61]
	lsu r0, r2, r0
	stw r1, sp[1]
	stw r2, sp[0]
	ecallf r0
	bu .LBB63_59
.LBB63_59:
	ldc r0, 0
	ldw r1, sp[1]
	ldw r2, sp[0]
	st8 r0, r1[r2]
	.loc	1 439 0
	ldw r0, sp[61]
	add r0, r0, 1
	stw r0, sp[61]
.Lxta.loop_labels29:
	# LOOPMARKER 0
.LBB63_61:
	ldw r0, sp[61]
	ldc r1, 64
	lss r0, r0, r1
	bt r0, .LBB63_58
	bu .LBB63_62
.LBB63_62:
.Lxtalabel118:
	.loc	1 443 0
	ldw r0, sp[61]
	stw r0, sp[66]
.Ltmp206:
	ldw r0, sp[66]
	ldw r5, sp[73]
	ldw r4, sp[74]
	retsp 75
.LBB63_64:
	ldc r0, 0
	ecallf r0
.Ltmp207:
	.size	build_icmp_response1, .Ltmp207-build_icmp_response1
.Lfunc_end63:
.Ltmp208:
	.cfi_endproc
.Leh_func_end63:

	.align	4
	.cc_bottom build_icmp_response1.function
	.set	build_icmp_response1.nstackwords,75
	.globl	build_icmp_response1.nstackwords
	.set	build_icmp_response1.maxcores,1
	.globl	build_icmp_response1.maxcores
	.set	build_icmp_response1.maxtimers,0
	.globl	build_icmp_response1.maxtimers
	.set	build_icmp_response1.maxchanends,0
	.globl	build_icmp_response1.maxchanends
	.cc_top is_valid_icmp_packet0.function
	.section	.cp.rodata.cst4,"aMc",@progbits,4
	.cc_top .LCPI64_0.data
	.align	4
.LCPI64_0:
	.long	4521992
	.cc_bottom .LCPI64_0.data
	.text
	.globl	is_valid_icmp_packet0
	.align	4
	.type	is_valid_icmp_packet0,@function
is_valid_icmp_packet0:
.Ltmp210:
	.cfi_startproc
.Lfunc_begin64:
	.loc	1 447 0
	entsp 26
.Ltmp211:
	.cfi_def_cfa_offset 104
.Ltmp212:
	.cfi_offset 15, 0
	stw r0, sp[17]
	stw r2, sp[16]
	stw r1, sp[15]
	ldw r0, sp[17]
	stw r0, sp[24]
	ldw r1, sp[16]
	stw r1, sp[23]
	ldw r2, sp[15]
	stw r2, sp[22]
.Lxtalabel119:
.Ltmp213:
	.loc	1 452 0 prologue_end
	ldw r0, sp[23]
	ldw r1, sp[24]
	ldc r2, 23
	lsu r0, r2, r0
	stw r1, sp[14]
	ecallf r0
	bu .LBB64_5
.LBB64_3:
.Lxtalabel120:
	ldc r0, 0
	.loc	1 453 0
	stw r0, sp[21]
	bu .LBB64_29
.LBB64_4:
.Lxtalabel121:
	ldc r1, 22
	.loc	1 455 0
	ldaw r0, dp[.str11]
.Lxta.call_labels35:
	bl printstr
	.loc	1 457 0
	ldw r1, sp[23]
	ldw r2, sp[24]
	shr r1, r1, 2
	mkmsk r3, 2
	lsu r1, r3, r1
	stw r2, sp[13]
	stw r0, sp[12]
	ecallf r1
	bu .LBB64_8
.LBB64_5:
	ldc r0, 23
	.loc	1 452 0
	ldw r1, sp[14]
	ld8u r0, r1[r0]
	eq r0, r0, 1
	bf r0, .LBB64_3
	bu .LBB64_4
.LBB64_6:
.Lxtalabel122:
	ldc r1, 25
	.loc	1 459 0
	ldaw r0, dp[.str12]
.Lxta.call_labels36:
	bl printstr
	ldc r1, 0
	.loc	1 460 0
	stw r1, sp[21]
	stw r0, sp[11]
	bu .LBB64_29
.LBB64_7:
.Lxtalabel123:
	.loc	1 462 0
	ldw r0, sp[23]
	ldw r1, sp[24]
	ldc r2, 8
	shr r0, r0, 2
	lsu r0, r2, r0
	stw r1, sp[10]
	ecallf r0
	bu .LBB64_11
.LBB64_8:
	.loc	1 457 0
	ldw r0, sp[13]
	ldw r1, r0[3]
	ldw r2, cp[.LCPI64_0]
	eq r1, r1, r2
	bf r1, .LBB64_6
	bu .LBB64_7
.LBB64_9:
.Lxtalabel124:
	ldc r1, 19
	.loc	1 464 0
	ldaw r0, dp[.str13]
.Lxta.call_labels37:
	bl printstr
	ldc r1, 0
	.loc	1 465 0
	stw r1, sp[21]
	stw r0, sp[9]
	bu .LBB64_29
.LBB64_10:
.Lxtalabel125:
	ldc r0, 0
	.loc	1 467 0
.Ltmp214:
	stw r0, sp[19]
.Ltmp215:
	bu .LBB64_18
.Ltmp216:
.LBB64_11:
	ldc r0, 34
	.loc	1 462 0
	ldw r1, sp[10]
	add r0, r1, r0
	ldc r2, 0
	ld16s r0, r0[r2]
	zext r0, 16
	eq r0, r0, 8
	bf r0, .LBB64_9
	bu .LBB64_10
.LBB64_12:
.Lxtalabel126:
	.loc	1 469 0
.Ltmp217:
	ldw r0, sp[23]
	ldw r1, sp[24]
	ldw r2, sp[19]
	ldc r3, 30
	add r2, r2, r3
	lsu r0, r2, r0
	stw r2, sp[8]
	stw r1, sp[7]
	ecallf r0
	bu .LBB64_15
.LBB64_13:
.Lxtalabel127:
	ldc r1, 12
	.loc	1 471 0
	ldaw r0, dp[.str14]
.Lxta.call_labels38:
	bl printstr
	ldc r1, 0
	.loc	1 472 0
	stw r1, sp[21]
	stw r0, sp[6]
	bu .LBB64_29
.LBB64_14:
.Lxtalabel128:
	bu .LBB64_17
.LBB64_15:
	.loc	1 469 0
	ldw r0, sp[19]
	ldw r1, sp[7]
	ldw r2, sp[8]
	ld8u r3, r1[r2]
	mkmsk r11, 2
	lsu r11, r11, r0
	stw r0, sp[5]
	stw r3, sp[4]
	ecallt r11
	bu .LBB64_16
.LBB64_16:
	ldaw r0, dp[own_ip_addr.static10]
	ldw r1, sp[5]
	ld8u r0, r0[r1]
	ldw r2, sp[4]
	zext r2, 8
	eq r0, r2, r0
	bf r0, .LBB64_13
	bu .LBB64_14
.LBB64_17:
	.loc	1 467 0
	ldw r0, sp[19]
	add r0, r0, 1
	stw r0, sp[19]
.Lxta.loop_labels30:
	# LOOPMARKER 0
.LBB64_18:
	ldw r0, sp[19]
	ldc r1, 4
	lss r0, r0, r1
	bt r0, .LBB64_12
	bu .LBB64_19
.Ltmp218:
.LBB64_19:
.Lxtalabel129:
	.loc	1 476 0
	ldw r0, sp[23]
	ldw r1, sp[24]
	shr r0, r0, 2
	ldc r2, 5
	lsu r0, r0, r2
	stw r1, sp[3]
	ecallt r0
	bu .LBB64_20
.LBB64_20:
	ldw r0, sp[3]
	ldw r1, r0[4]
	byterev r1, r1
	shr r1, r1, 16
	stw r1, sp[20]
	.loc	1 477 0
	ldw r1, sp[22]
	ldc r2, 61
	lss r1, r1, r2
	bt r1, .LBB64_25
	bu .LBB64_24
.LBB64_21:
.Lxtalabel130:
	.loc	1 480 0
	ldw r0, sp[22]
	.loc	1 480 0
.Lxta.call_labels39:
	bl printintln
	.loc	1 481 0
	ldw r1, sp[20]
	ldc r2, 14
	add r1, r1, r2
	.loc	1 481 0
	stw r0, sp[2]
	mov r0, r1
.Lxta.call_labels40:
	bl printintln
	ldc r1, 0
	.loc	1 482 0
	stw r1, sp[21]
	stw r0, sp[1]
	bu .LBB64_29
.LBB64_22:
.Lxtalabel131:
	.loc	1 484 0
	ldw r1, sp[23]
	ldw r0, sp[24]
	.loc	1 484 0
.Lxta.call_labels41:
	bl checksum_ip
	.loc	1 484 0
	bt r0, .LBB64_27
	bu .LBB64_28
.LBB64_23:
	mkmsk r0, 1
	.loc	1 477 0
	stw r0, sp[18]
	bu .LBB64_26
.LBB64_24:
	ldw r0, sp[22]
	ldw r1, sp[20]
	ldc r2, 14
	add r1, r1, r2
	eq r0, r0, r1
	bf r0, .LBB64_23
	bu .LBB64_25
.LBB64_25:
	ldc r0, 0
	stw r0, sp[18]
.LBB64_26:
	ldw r0, sp[18]
	bt r0, .LBB64_21
	bu .LBB64_22
.LBB64_27:
.Lxtalabel132:
	ldc r0, 0
	.loc	1 487 0
	stw r0, sp[21]
	bu .LBB64_29
.LBB64_28:
.Lxtalabel133:
	mkmsk r0, 1
	.loc	1 490 0
	stw r0, sp[21]
.Ltmp219:
.LBB64_29:
	ldw r0, sp[21]
	retsp 26
.LBB64_30:
	ldc r0, 0
	ecallf r0
.Ltmp220:
	.size	is_valid_icmp_packet0, .Ltmp220-is_valid_icmp_packet0
.Lfunc_end64:
.Ltmp221:
	.cfi_endproc
.Leh_func_end64:

	.align	4
	.cc_bottom is_valid_icmp_packet0.function
	.set	is_valid_icmp_packet0.nstackwords,((printstr.nstackwords $M printintln.nstackwords $M checksum_ip.nstackwords) + 26)
	.globl	is_valid_icmp_packet0.nstackwords
	.set	is_valid_icmp_packet0.maxcores,checksum_ip.maxcores $M printintln.maxcores $M printstr.maxcores $M 1
	.globl	is_valid_icmp_packet0.maxcores
	.set	is_valid_icmp_packet0.maxtimers,checksum_ip.maxtimers $M printintln.maxtimers $M printstr.maxtimers $M 0
	.globl	is_valid_icmp_packet0.maxtimers
	.set	is_valid_icmp_packet0.maxchanends,checksum_ip.maxchanends $M printintln.maxchanends $M printstr.maxchanends $M 0
	.globl	is_valid_icmp_packet0.maxchanends
	.cc_top is_valid_icmp_packet1.function
	.section	.cp.rodata.cst4,"aMc",@progbits,4
	.cc_top .LCPI65_0.data
	.align	4
.LCPI65_0:
	.long	4521992
	.cc_bottom .LCPI65_0.data
	.text
	.globl	is_valid_icmp_packet1
	.align	4
	.type	is_valid_icmp_packet1,@function
is_valid_icmp_packet1:
.Ltmp223:
	.cfi_startproc
.Lfunc_begin65:
	.loc	1 494 0
	entsp 28
.Ltmp224:
	.cfi_def_cfa_offset 112
.Ltmp225:
	.cfi_offset 15, 0
	stw r0, sp[19]
	stw r2, sp[18]
	stw r1, sp[17]
	ldw r0, sp[19]
	stw r0, sp[26]
	ldw r1, sp[18]
	stw r1, sp[25]
	ldw r2, sp[17]
	stw r2, sp[24]
.Lxtalabel134:
.Ltmp226:
	.loc	1 499 0 prologue_end
	ldw r0, sp[25]
	ldw r1, sp[26]
	ldc r2, 23
	lsu r0, r2, r0
	stw r1, sp[16]
	ecallf r0
	bu .LBB65_5
.LBB65_3:
.Lxtalabel135:
	ldc r0, 0
	.loc	1 500 0
	stw r0, sp[23]
	bu .LBB65_29
.LBB65_4:
.Lxtalabel136:
	ldc r1, 22
	.loc	1 502 0
	ldaw r0, dp[.str16]
.Lxta.call_labels42:
	bl printstr
	.loc	1 504 0
	ldw r1, sp[25]
	ldw r2, sp[26]
	shr r1, r1, 2
	mkmsk r3, 2
	lsu r1, r3, r1
	stw r2, sp[15]
	stw r0, sp[14]
	ecallf r1
	bu .LBB65_8
.LBB65_5:
	ldc r0, 23
	.loc	1 499 0
	ldw r1, sp[16]
	ld8u r0, r1[r0]
	eq r0, r0, 1
	bf r0, .LBB65_3
	bu .LBB65_4
.LBB65_6:
.Lxtalabel137:
	ldc r0, 0
	.loc	1 507 0
	stw r0, sp[23]
	bu .LBB65_29
.LBB65_7:
.Lxtalabel138:
	.loc	1 509 0
	ldw r0, sp[25]
	ldw r1, sp[26]
	ldc r2, 8
	shr r0, r0, 2
	lsu r0, r2, r0
	stw r1, sp[13]
	ecallf r0
	bu .LBB65_11
.LBB65_8:
	.loc	1 504 0
	ldw r0, sp[15]
	ldw r1, r0[3]
	ldw r2, cp[.LCPI65_0]
	eq r1, r1, r2
	bf r1, .LBB65_6
	bu .LBB65_7
.LBB65_9:
.Lxtalabel139:
	ldc r1, 19
	.loc	1 511 0
	ldaw r0, dp[.str17]
.Lxta.call_labels43:
	bl printstr
	ldc r1, 0
	.loc	1 512 0
	stw r1, sp[23]
	stw r0, sp[12]
	bu .LBB65_29
.LBB65_10:
.Lxtalabel140:
	ldc r0, 0
	.loc	1 514 0
.Ltmp227:
	stw r0, sp[21]
.Ltmp228:
	bu .LBB65_18
.Ltmp229:
.LBB65_11:
	ldc r0, 34
	.loc	1 509 0
	ldw r1, sp[13]
	add r0, r1, r0
	ldc r2, 0
	ld16s r0, r0[r2]
	zext r0, 16
	eq r0, r0, 8
	bf r0, .LBB65_9
	bu .LBB65_10
.LBB65_12:
.Lxtalabel141:
	.loc	1 516 0
.Ltmp230:
	ldw r0, sp[25]
	ldw r1, sp[26]
	ldw r2, sp[21]
	ldc r3, 30
	add r2, r2, r3
	lsu r0, r2, r0
	stw r2, sp[11]
	stw r1, sp[10]
	ecallf r0
	bu .LBB65_15
.LBB65_13:
.Lxtalabel142:
	ldc r1, 12
	.loc	1 518 0
	ldaw r0, dp[.str18]
.Lxta.call_labels44:
	bl printstr
	ldc r1, 0
	.loc	1 519 0
	stw r1, sp[23]
	stw r0, sp[9]
	bu .LBB65_29
.LBB65_14:
.Lxtalabel143:
	bu .LBB65_17
.LBB65_15:
	.loc	1 516 0
	ldw r0, sp[21]
	ldw r1, sp[10]
	ldw r2, sp[11]
	ld8u r3, r1[r2]
	mkmsk r11, 2
	lsu r11, r11, r0
	stw r0, sp[8]
	stw r3, sp[7]
	ecallt r11
	bu .LBB65_16
.LBB65_16:
	ldaw r0, dp[own_ip_addr.static15]
	ldw r1, sp[8]
	ld8u r0, r0[r1]
	ldw r2, sp[7]
	zext r2, 8
	eq r0, r2, r0
	bf r0, .LBB65_13
	bu .LBB65_14
.LBB65_17:
	.loc	1 514 0
	ldw r0, sp[21]
	add r0, r0, 1
	stw r0, sp[21]
.Lxta.loop_labels31:
	# LOOPMARKER 0
.LBB65_18:
	ldw r0, sp[21]
	ldc r1, 4
	lss r0, r0, r1
	bt r0, .LBB65_12
	bu .LBB65_19
.Ltmp231:
.LBB65_19:
.Lxtalabel144:
	.loc	1 523 0
	ldw r0, sp[25]
	ldw r1, sp[26]
	shr r0, r0, 2
	ldc r2, 5
	lsu r0, r0, r2
	stw r1, sp[6]
	ecallt r0
	bu .LBB65_20
.LBB65_20:
	ldw r0, sp[6]
	ldw r1, r0[4]
	byterev r1, r1
	shr r1, r1, 16
	stw r1, sp[22]
	.loc	1 524 0
	ldw r1, sp[24]
	ldc r2, 61
	lss r1, r1, r2
	bt r1, .LBB65_25
	bu .LBB65_24
.LBB65_21:
.Lxtalabel145:
	ldc r0, 14
	.loc	1 526 0
	ldaw r1, dp[.str19]
	stw r0, sp[5]
	mov r0, r1
	ldw r1, sp[5]
.Lxta.call_labels45:
	bl printstr
	.loc	1 527 0
	ldw r1, sp[24]
	.loc	1 527 0
	stw r0, sp[4]
	mov r0, r1
.Lxta.call_labels46:
	bl printintln
	.loc	1 528 0
	ldw r1, sp[22]
	ldw r2, sp[5]
	add r1, r1, r2
	.loc	1 528 0
	stw r0, sp[3]
	mov r0, r1
.Lxta.call_labels47:
	bl printintln
	ldc r1, 0
	.loc	1 529 0
	stw r1, sp[23]
	stw r0, sp[2]
	bu .LBB65_29
.LBB65_22:
.Lxtalabel146:
	.loc	1 531 0
	ldw r1, sp[25]
	ldw r0, sp[26]
	.loc	1 531 0
.Lxta.call_labels48:
	bl checksum_ip
	.loc	1 531 0
	bt r0, .LBB65_27
	bu .LBB65_28
.LBB65_23:
	mkmsk r0, 1
	.loc	1 524 0
	stw r0, sp[20]
	bu .LBB65_26
.LBB65_24:
	ldw r0, sp[24]
	ldw r1, sp[22]
	ldc r2, 14
	add r1, r1, r2
	eq r0, r0, r1
	bf r0, .LBB65_23
	bu .LBB65_25
.LBB65_25:
	ldc r0, 0
	stw r0, sp[20]
.LBB65_26:
	ldw r0, sp[20]
	bt r0, .LBB65_21
	bu .LBB65_22
.LBB65_27:
.Lxtalabel147:
	ldc r1, 14
	.loc	1 533 0
	ldaw r0, dp[.str20]
.Lxta.call_labels49:
	bl printstr
	ldc r1, 0
	.loc	1 534 0
	stw r1, sp[23]
	stw r0, sp[1]
	bu .LBB65_29
.LBB65_28:
.Lxtalabel148:
	mkmsk r0, 1
	.loc	1 537 0
	stw r0, sp[23]
.Ltmp232:
.LBB65_29:
	ldw r0, sp[23]
	retsp 28
.LBB65_30:
	ldc r0, 0
	ecallf r0
.Ltmp233:
	.size	is_valid_icmp_packet1, .Ltmp233-is_valid_icmp_packet1
.Lfunc_end65:
.Ltmp234:
	.cfi_endproc
.Leh_func_end65:

	.align	4
	.cc_bottom is_valid_icmp_packet1.function
	.set	is_valid_icmp_packet1.nstackwords,((printintln.nstackwords $M checksum_ip.nstackwords $M printstr.nstackwords) + 28)
	.globl	is_valid_icmp_packet1.nstackwords
	.set	is_valid_icmp_packet1.maxcores,checksum_ip.maxcores $M printintln.maxcores $M printstr.maxcores $M 1
	.globl	is_valid_icmp_packet1.maxcores
	.set	is_valid_icmp_packet1.maxtimers,checksum_ip.maxtimers $M printintln.maxtimers $M printstr.maxtimers $M 0
	.globl	is_valid_icmp_packet1.maxtimers
	.set	is_valid_icmp_packet1.maxchanends,checksum_ip.maxchanends $M printintln.maxchanends $M printstr.maxchanends $M 0
	.globl	is_valid_icmp_packet1.maxchanends
	.cc_top __main__main_tile_0.function
	.globl	__main__main_tile_0
	.align	4
	.type	__main__main_tile_0,@function
__main__main_tile_0:
.Ltmp236:
	.cfi_startproc
	entsp 17
.Ltmp237:
	.cfi_def_cfa_offset 68
.Ltmp238:
	.cfi_offset 15, 0
	ldc r0, 0
	stw r0, sp[7]
	ldaw r0, sp[12]
	getr r1, 2
	getr r2, 2
	setd res[r1], r2
	setd res[r2], r1
	stw r1, sp[9]
	stw r2, sp[8]
	ldc r1, 0
	stw r1, sp[7]
	getr r1, 2
	getr r2, 2
	setd res[r1], r2
	setd res[r2], r1
	stw r1, sp[6]
	stw r2, sp[5]
	mkmsk r1, 1
	stw r0, sp[4]
	ecallf r1
	bu .LBB66_4
.LBB66_3:
	ldw r0, sp[9]
	ldw r1, sp[8]
	freer res[r0]
	freer res[r1]
	ldw r0, sp[6]
	ldw r1, sp[5]
	freer res[r0]
	freer res[r1]
	bu .LBB66_8
.LBB66_4:
	ldw r0, sp[9]
	ldw r1, sp[4]
	stw r0, r1[0]
	ldaw r0, sp[13]
	ldc r2, 0
	stw r0, sp[3]
	ecallt r2
	bu .LBB66_5
.LBB66_5:
	ldw r0, sp[8]
	ldw r1, sp[3]
	stw r0, r1[0]
	ldaw r0, sp[10]
	ldc r2, 0
	stw r0, sp[2]
	ecallt r2
	bu .LBB66_6
.LBB66_6:
	ldw r0, sp[6]
	ldw r1, sp[2]
	stw r0, r1[0]
	ldaw r0, sp[11]
	ldc r2, 0
	stw r0, sp[1]
	ecallt r2
	bu .LBB66_7
.LBB66_7:
	ldw r0, sp[5]
	ldw r1, sp[1]
	stw r0, r1[0]
	ldaw r0, sp[10]
	ldaw r1, dp[par.desc.1]
	bl __start_other_cores
	bu .LBB66_3
.LBB66_8:
	retsp 17
.LBB66_10:
	ldc r0, 0
	ecallf r0
.Ltmp239:
	.size	__main__main_tile_0, .Ltmp239-__main__main_tile_0
.Ltmp240:
	.cfi_endproc
.Leh_func_end66:

	.align	4
	.cc_bottom __main__main_tile_0.function
	.set	__main__main_tile_0.nstackwords,((par.extra_stackwords + 1 + __main__main_tile_0_task__ethernet_server_lite_0.nstackwords + 1 + __main__main_tile_0_task_demo0_1.nstackwords) + 17)
	.globl	__main__main_tile_0.nstackwords
	.set	__main__main_tile_0.maxcores,(0 + __main__main_tile_0_task__ethernet_server_lite_0.maxcores + __main__main_tile_0_task_demo0_1.maxcores) $M 1
	.globl	__main__main_tile_0.maxcores
	.set	__main__main_tile_0.maxtimers,(1 + __main__main_tile_0_task__ethernet_server_lite_0.maxtimers + __main__main_tile_0_task_demo0_1.maxtimers) $M 0
	.globl	__main__main_tile_0.maxtimers
	.set	__main__main_tile_0.maxchanends,(4 + (0 + __main__main_tile_0_task__ethernet_server_lite_0.maxchanends + __main__main_tile_0_task_demo0_1.maxchanends)) $M 4
	.globl	__main__main_tile_0.maxchanends
	.cc_top __main__main_tile_0_task__ethernet_server_lite_0.function
	.align	4
	.type	__main__main_tile_0_task__ethernet_server_lite_0,@function
__main__main_tile_0_task__ethernet_server_lite_0:
.Ltmp242:
	.cfi_startproc
.Lfunc_begin67:
	.loc	1 645 0
	entsp 15
.Ltmp243:
	.cfi_def_cfa_offset 60
.Ltmp244:
	.cfi_offset 15, 0
	stw r0, sp[12]
	ldw r0, sp[12]
	stw r0, sp[13]
	.loc	1 646 0 prologue_end
.Ltmp245:
	ldw r0, sp[13]
	ldaw r2, r0[4]
	ldc r0, 0
	.loc	1 647 0
	stw r2, sp[11]
	ecallt r0
	bu .LBB67_3
.LBB67_3:
	ldc r0, 0
	.loc	1 647 0
	ldaw r1, dp[otp_ports_p2]
	stw r0, sp[10]
	mov r0, r1
	ldw r1, sp[10]
	ldw r2, sp[11]
.Lxta.call_labels50:
	bl otp_board_info_get_mac
	.loc	1 648 0
	ldw r1, dp[eth_rst_p2]
	.loc	1 648 0
	stw r0, sp[9]
	mov r0, r1
.Lxta.call_labels51:
	bl eth_phy_reset_p1
	.loc	1 649 0
	ldaw r0, dp[smi_p2]
	stw r0, sp[8]
.Lxta.call_labels52:
	bl smi_init
	mkmsk r0, 1
	.loc	1 650 0
	stw r0, sp[7]
	ldw r1, sp[8]
.Lxta.call_labels53:
	bl eth_phy_config
	.loc	1 655 0
	ldw r0, sp[13]
	ldaw r2, r0[4]
	add r3, r0, 8
	.loc	1 655 0
	ldw r1, sp[7]
	stw r1, sp[6]
	stw r1, sp[5]
	ldc r11, 6
	stw r11, sp[4]
	stw r1, sp[3]
	stw r0, sp[2]
	stw r1, sp[1]
	ldaw r0, dp[mii_p2]
	ldw r1, sp[10]
.Lxta.call_labels54:
	bl _ethernet_server_lite
.Ltmp246:
	retsp 15
.LBB67_5:
	ldc r0, 0
	ecallf r0
.Ltmp247:
	.size	__main__main_tile_0_task__ethernet_server_lite_0, .Ltmp247-__main__main_tile_0_task__ethernet_server_lite_0
.Lfunc_end67:
.Ltmp248:
	.cfi_endproc
.Leh_func_end67:

	.align	4
	.cc_bottom __main__main_tile_0_task__ethernet_server_lite_0.function
	.set	__main__main_tile_0_task__ethernet_server_lite_0.nstackwords,((otp_board_info_get_mac.nstackwords $M eth_phy_reset_p1.nstackwords $M smi_init.nstackwords $M eth_phy_config.nstackwords $M _ethernet_server_lite.nstackwords) + 15)
	.set	__main__main_tile_0_task__ethernet_server_lite_0.maxcores,_ethernet_server_lite.maxcores $M eth_phy_config.maxcores $M eth_phy_reset_p1.maxcores $M otp_board_info_get_mac.maxcores $M smi_init.maxcores $M 1
	.set	__main__main_tile_0_task__ethernet_server_lite_0.maxtimers,_ethernet_server_lite.maxtimers $M eth_phy_config.maxtimers $M eth_phy_reset_p1.maxtimers $M otp_board_info_get_mac.maxtimers $M smi_init.maxtimers $M 0
	.set	__main__main_tile_0_task__ethernet_server_lite_0.maxchanends,_ethernet_server_lite.maxchanends $M eth_phy_config.maxchanends $M eth_phy_reset_p1.maxchanends $M otp_board_info_get_mac.maxchanends $M smi_init.maxchanends $M 0
	.cc_top __main__main_tile_0_task_demo0_1.function
	.align	4
	.type	__main__main_tile_0_task_demo0_1,@function
__main__main_tile_0_task_demo0_1:
.Ltmp250:
	.cfi_startproc
.Lfunc_begin68:
	.loc	1 673 0
	entsp 5
.Ltmp251:
	.cfi_def_cfa_offset 20
.Ltmp252:
	.cfi_offset 15, 0
	stw r0, sp[2]
	ldw r0, sp[2]
	stw r0, sp[3]
	.loc	1 673 0 prologue_end
.Ltmp253:
	ldw r0, sp[3]
	ldw r1, r0[1]
	ldw r0, r0[3]
	.loc	1 673 0
	stw r0, sp[1]
	mov r0, r1
	ldw r1, sp[1]
.Lxta.call_labels55:
	bl demo0
.Ltmp254:
	retsp 5
.Ltmp255:
	.size	__main__main_tile_0_task_demo0_1, .Ltmp255-__main__main_tile_0_task_demo0_1
.Lfunc_end68:
.Ltmp256:
	.cfi_endproc
.Leh_func_end68:

	.align	4
	.cc_bottom __main__main_tile_0_task_demo0_1.function
	.set	__main__main_tile_0_task_demo0_1.nstackwords,(demo0.nstackwords + 5)
	.set	__main__main_tile_0_task_demo0_1.maxcores,demo0.maxcores $M 1
	.set	__main__main_tile_0_task_demo0_1.maxtimers,demo0.maxtimers $M 0
	.set	__main__main_tile_0_task_demo0_1.maxchanends,demo0.maxchanends $M 0
	.section	.dp.rodata,"awd",@progbits
	.cc_top otp_ports_p1.data
	.globl	otp_ports_p1
	.align	4
	.type	otp_ports_p1,@object
	.size otp_ports_p1,12
otp_ports_p1:
	.long	2097408
	.long	1049088
	.long	1049344
	.cc_bottom otp_ports_p1.data
	.cc_top otp_ports_p2.data
	.globl	otp_ports_p2
	.align	4
	.type	otp_ports_p2,@object
	.size otp_ports_p2,12
otp_ports_p2:
	.long	2097152
	.long	1048576
	.long	1048832
	.cc_bottom otp_ports_p2.data
	.section	.dp.data,"awd",@progbits
	.cc_top smi_p1.data
	.globl	smi_p1
	.align	4
	.type	smi_p1,@object
	.size smi_p1,8
smi_p1:
	.long	0
	.long	262912
	.cc_bottom smi_p1.data
	.cc_top smi_p2.data
	.globl	smi_p2
	.align	4
	.type	smi_p2,@object
	.size smi_p2,8
smi_p2:
	.long	0
	.long	262656
	.cc_bottom smi_p2.data
	.section	.dp.rodata,"awd",@progbits
	.cc_top mii_p2.data
	.globl	mii_p2
	.align	4
	.type	mii_p2,@object
	.size mii_p2,40
mii_p2:
	.long	774
	.long	1030
	.long	67584
	.long	67072
	.long	262400
	.long	68352
	.long	67328
	.long	67840
	.long	262144
	.long	524800
	.cc_bottom mii_p2.data
	.section	.dp.data,"awd",@progbits
	.cc_top ethertype_ip0.data
	.globl	ethertype_ip0.globound
	.set	ethertype_ip0.globound,2
	.globl	ethertype_ip0
	.align	4
	.type	ethertype_ip0,@object
	.size ethertype_ip0,2
ethertype_ip0:
.asciiz "\b"
	.space	2
	.cc_bottom ethertype_ip0.data
	.cc_top ethertype_arp0.data
	.globl	ethertype_arp0.globound
	.set	ethertype_arp0.globound,2
	.globl	ethertype_arp0
	.align	4
	.type	ethertype_arp0,@object
	.size ethertype_arp0,2
ethertype_arp0:
	.ascii	 "\b\006"
	.space	2
	.cc_bottom ethertype_arp0.data
	.cc_top ethertype_ip1.data
	.globl	ethertype_ip1.globound
	.set	ethertype_ip1.globound,2
	.globl	ethertype_ip1
	.align	4
	.type	ethertype_ip1,@object
	.size ethertype_ip1,2
ethertype_ip1:
.asciiz "\b"
	.space	2
	.cc_bottom ethertype_ip1.data
	.cc_top ethertype_arp1.data
	.globl	ethertype_arp1.globound
	.set	ethertype_arp1.globound,2
	.globl	ethertype_arp1
	.align	4
	.type	ethertype_arp1,@object
	.size ethertype_arp1,2
ethertype_arp1:
	.ascii	 "\b\006"
	.space	2
	.cc_bottom ethertype_arp1.data
	.section	.dp.bss,"awd",@nobits
	.cc_top own_mac_addr0.data
	.globl	own_mac_addr0.globound
	.set	own_mac_addr0.globound,6
	.globl	own_mac_addr0
	.align	4
	.type	own_mac_addr0,@object
	.size own_mac_addr0,6
own_mac_addr0:
	.space	6
	.cc_bottom own_mac_addr0.data
	.cc_top own_mac_addr1.data
	.globl	own_mac_addr1.globound
	.set	own_mac_addr1.globound,6
	.globl	own_mac_addr1
	.align	4
	.type	own_mac_addr1,@object
	.size own_mac_addr1,6
own_mac_addr1:
	.space	6
	.cc_bottom own_mac_addr1.data
	.section	.dp.rodata,"awd",@progbits
	.cc_top own_ip_addr.static.data
	.align	4
	.type	own_ip_addr.static,@object
	.size own_ip_addr.static,4
own_ip_addr.static:
	.ascii	 "\300\250eF"
	.cc_bottom own_ip_addr.static.data
	.cc_top .str.data
	.align	4
	.type	.str,@object
	.size .str,21
.str:
.asciiz "ARP packet received\n"
	.cc_bottom .str.data
	.cc_top .str1.data
	.align	4
	.type	.str1,@object
	.size .str1,18
.str1:
.asciiz "Invalid et_htype\n"
	.cc_bottom .str1.data
	.cc_top .str2.data
	.align	4
	.type	.str2,@object
	.size .str2,20
.str2:
.asciiz "Invalid ptype_hlen\n"
	.cc_bottom .str2.data
	.cc_top .str3.data
	.align	4
	.type	.str3,@object
	.size .str3,15
.str3:
.asciiz "Not a request\n"
	.cc_bottom .str3.data
	.cc_top .str4.data
	.align	4
	.type	.str4,@object
	.size .str4,12
.str4:
.asciiz "Not for us\n"
	.cc_bottom .str4.data
	.cc_top own_ip_addr.static5.data
	.align	4
	.type	own_ip_addr.static5,@object
	.size own_ip_addr.static5,4
own_ip_addr.static5:
	.ascii	 "\300\250eF"
	.cc_bottom own_ip_addr.static5.data
	.cc_top .str6.data
	.align	4
	.type	.str6,@object
	.size .str6,21
.str6:
.asciiz "ARP packet received\n"
	.cc_bottom .str6.data
	.cc_top .str7.data
	.align	4
	.type	.str7,@object
	.size .str7,12
.str7:
.asciiz "Not for us\n"
	.cc_bottom .str7.data
	.cc_top own_ip_addr.static8.data
	.align	4
	.type	own_ip_addr.static8,@object
	.size own_ip_addr.static8,4
own_ip_addr.static8:
	.ascii	 "\300\250eF"
	.cc_bottom own_ip_addr.static8.data
	.cc_top own_ip_addr.static9.data
	.align	4
	.type	own_ip_addr.static9,@object
	.size own_ip_addr.static9,4
own_ip_addr.static9:
	.ascii	 "\300\250eF"
	.cc_bottom own_ip_addr.static9.data
	.cc_top own_ip_addr.static10.data
	.align	4
	.type	own_ip_addr.static10,@object
	.size own_ip_addr.static10,4
own_ip_addr.static10:
	.ascii	 "\300\250eF"
	.cc_bottom own_ip_addr.static10.data
	.cc_top .str11.data
	.align	4
	.type	.str11,@object
	.size .str11,22
.str11:
.asciiz "ICMP packet received\n"
	.cc_bottom .str11.data
	.cc_top .str12.data
	.align	4
	.type	.str12,@object
	.size .str12,25
.str12:
.asciiz "Invalid et_ver_hdrl_tos\n"
	.cc_bottom .str12.data
	.cc_top .str13.data
	.align	4
	.type	.str13,@object
	.size .str13,19
.str13:
.asciiz "Invalid type_code\n"
	.cc_bottom .str13.data
	.cc_top .str14.data
	.align	4
	.type	.str14,@object
	.size .str14,12
.str14:
.asciiz "Not for us\n"
	.cc_bottom .str14.data
	.cc_top own_ip_addr.static15.data
	.align	4
	.type	own_ip_addr.static15,@object
	.size own_ip_addr.static15,4
own_ip_addr.static15:
	.ascii	 "\300\250eF"
	.cc_bottom own_ip_addr.static15.data
	.cc_top .str16.data
	.align	4
	.type	.str16,@object
	.size .str16,22
.str16:
.asciiz "ICMP packet received\n"
	.cc_bottom .str16.data
	.cc_top .str17.data
	.align	4
	.type	.str17,@object
	.size .str17,19
.str17:
.asciiz "Invalid type_code\n"
	.cc_bottom .str17.data
	.cc_top .str18.data
	.align	4
	.type	.str18,@object
	.size .str18,12
.str18:
.asciiz "Not for us\n"
	.cc_bottom .str18.data
	.cc_top .str19.data
	.align	4
	.type	.str19,@object
	.size .str19,14
.str19:
.asciiz "Invalid size\n"
	.cc_bottom .str19.data
	.cc_top .str20.data
	.align	4
	.type	.str20,@object
	.size .str20,14
.str20:
.asciiz "Bad checksum\n"
	.cc_bottom .str20.data
	.cc_top .str21.data
	.align	4
	.type	.str21,@object
	.size .str21,20
.str21:
.asciiz "Test started on P1\n"
	.cc_bottom .str21.data
	.cc_top .str22.data
	.align	4
	.type	.str22,@object
	.size .str22,20
.str22:
.asciiz "Test started on P2\n"
	.cc_bottom .str22.data
	.cc_top .str23.data
	.align	4
	.type	.str23,@object
	.size .str23,19
.str23:
.asciiz "ARP response sent\n"
	.cc_bottom .str23.data
	.cc_top .str24.data
	.align	4
	.type	.str24,@object
	.size .str24,20
.str24:
.asciiz "ICMP response sent\n"
	.cc_bottom .str24.data
	.section	.dp.data,"awd",@progbits
	.cc_top par.desc.1.data
	.align	4
	.type	par.desc.1,@object
	.size par.desc.1,16
par.desc.1:
	.long	__main__main_tile_0_task__ethernet_server_lite_0
	.long	__main__main_tile_0_task_demo0_1.nstackwords
	.long	0
	.long	__main__main_tile_0_task_demo0_1
	.cc_bottom par.desc.1.data
	.cc_top __xcc1_internal_1.data
	.align	4
	.type	__xcc1_internal_1,@object
	.size __xcc1_internal_1,4
__xcc1_internal_1:
	.long	2097408
	.cc_bottom __xcc1_internal_1.data
	.cc_top __xcc1_internal_2.data
	.align	4
	.type	__xcc1_internal_2,@object
	.size __xcc1_internal_2,4
__xcc1_internal_2:
	.long	1049088
	.cc_bottom __xcc1_internal_2.data
	.cc_top __xcc1_internal_3.data
	.align	4
	.type	__xcc1_internal_3,@object
	.size __xcc1_internal_3,4
__xcc1_internal_3:
	.long	1049344
	.cc_bottom __xcc1_internal_3.data
	.cc_top __xcc1_internal_4.data
	.align	4
	.type	__xcc1_internal_4,@object
	.size __xcc1_internal_4,4
__xcc1_internal_4:
	.long	2097152
	.cc_bottom __xcc1_internal_4.data
	.cc_top __xcc1_internal_5.data
	.align	4
	.type	__xcc1_internal_5,@object
	.size __xcc1_internal_5,4
__xcc1_internal_5:
	.long	1048576
	.cc_bottom __xcc1_internal_5.data
	.cc_top __xcc1_internal_6.data
	.align	4
	.type	__xcc1_internal_6,@object
	.size __xcc1_internal_6,4
__xcc1_internal_6:
	.long	1048832
	.cc_bottom __xcc1_internal_6.data
	.cc_top __xcc1_internal_7.data
	.align	4
	.type	__xcc1_internal_7,@object
	.size __xcc1_internal_7,4
__xcc1_internal_7:
	.long	262912
	.cc_bottom __xcc1_internal_7.data
	.cc_top __xcc1_internal_8.data
	.align	4
	.type	__xcc1_internal_8,@object
	.size __xcc1_internal_8,4
__xcc1_internal_8:
	.long	262656
	.cc_bottom __xcc1_internal_8.data
	.cc_top __xcc1_internal_9.data
	.align	4
	.type	__xcc1_internal_9,@object
	.size __xcc1_internal_9,4
__xcc1_internal_9:
	.long	774
	.cc_bottom __xcc1_internal_9.data
	.cc_top __xcc1_internal_10.data
	.align	4
	.type	__xcc1_internal_10,@object
	.size __xcc1_internal_10,4
__xcc1_internal_10:
	.long	1030
	.cc_bottom __xcc1_internal_10.data
	.cc_top __xcc1_internal_11.data
	.align	4
	.type	__xcc1_internal_11,@object
	.size __xcc1_internal_11,4
__xcc1_internal_11:
	.long	67584
	.cc_bottom __xcc1_internal_11.data
	.cc_top __xcc1_internal_12.data
	.align	4
	.type	__xcc1_internal_12,@object
	.size __xcc1_internal_12,4
__xcc1_internal_12:
	.long	67072
	.cc_bottom __xcc1_internal_12.data
	.cc_top __xcc1_internal_13.data
	.align	4
	.type	__xcc1_internal_13,@object
	.size __xcc1_internal_13,4
__xcc1_internal_13:
	.long	262400
	.cc_bottom __xcc1_internal_13.data
	.cc_top __xcc1_internal_14.data
	.align	4
	.type	__xcc1_internal_14,@object
	.size __xcc1_internal_14,4
__xcc1_internal_14:
	.long	68352
	.cc_bottom __xcc1_internal_14.data
	.cc_top __xcc1_internal_15.data
	.align	4
	.type	__xcc1_internal_15,@object
	.size __xcc1_internal_15,4
__xcc1_internal_15:
	.long	67328
	.cc_bottom __xcc1_internal_15.data
	.cc_top __xcc1_internal_16.data
	.align	4
	.type	__xcc1_internal_16,@object
	.size __xcc1_internal_16,4
__xcc1_internal_16:
	.long	67840
	.cc_bottom __xcc1_internal_16.data
	.cc_top __xcc1_internal_17.data
	.align	4
	.type	__xcc1_internal_17,@object
	.size __xcc1_internal_17,4
__xcc1_internal_17:
	.long	262144
	.cc_bottom __xcc1_internal_17.data
	.cc_top __xcc1_internal_18.data
	.align	4
	.type	__xcc1_internal_18,@object
	.size __xcc1_internal_18,4
__xcc1_internal_18:
	.long	524800
	.cc_bottom __xcc1_internal_18.data
	.cfi_sections .debug_frame
	.text
.Ltext_end:
	.section	.dp.data,"awd",@progbits
.Ldata_end:
	.text
.Lsection_end1:
	.section	.xtacalltable,"",@progbits
.Lentries_start0:
	.long	.Lentries_end1-.Lentries_start0
	.long	0
	.ascii	 "/home/atena/workspace_ethernet_new_replicated/app_ethernet_demo/.build_lite"
	.byte	0
.cc_top cc_0,.Lxta.call_labels24
	.ascii	 "../src/demo.xc"
	.byte	0
	.long	120
	.long	.Lxta.call_labels24
.cc_bottom cc_0
.cc_top cc_1,.Lxta.call_labels25
	.ascii	 "../src/demo.xc"
	.byte	0
	.long	122
	.long	.Lxta.call_labels25
.cc_bottom cc_1
.cc_top cc_2,.Lxta.call_labels26
	.ascii	 "../src/demo.xc"
	.byte	0
	.long	130
	.long	.Lxta.call_labels26
.cc_bottom cc_2
.cc_top cc_3,.Lxta.call_labels27
	.ascii	 "../src/demo.xc"
	.byte	0
	.long	132
	.long	.Lxta.call_labels27
.cc_bottom cc_3
.cc_top cc_4,.Lxta.call_labels28
	.ascii	 "../src/demo.xc"
	.byte	0
	.long	233
	.long	.Lxta.call_labels28
.cc_bottom cc_4
.cc_top cc_5,.Lxta.call_labels29
	.ascii	 "../src/demo.xc"
	.byte	0
	.long	237
	.long	.Lxta.call_labels29
.cc_bottom cc_5
.cc_top cc_6,.Lxta.call_labels30
	.ascii	 "../src/demo.xc"
	.byte	0
	.long	242
	.long	.Lxta.call_labels30
.cc_bottom cc_6
.cc_top cc_7,.Lxta.call_labels31
	.ascii	 "../src/demo.xc"
	.byte	0
	.long	247
	.long	.Lxta.call_labels31
.cc_bottom cc_7
.cc_top cc_8,.Lxta.call_labels32
	.ascii	 "../src/demo.xc"
	.byte	0
	.long	254
	.long	.Lxta.call_labels32
.cc_bottom cc_8
.cc_top cc_9,.Lxta.call_labels33
	.ascii	 "../src/demo.xc"
	.byte	0
	.long	269
	.long	.Lxta.call_labels33
.cc_bottom cc_9
.cc_top cc_10,.Lxta.call_labels34
	.ascii	 "../src/demo.xc"
	.byte	0
	.long	290
	.long	.Lxta.call_labels34
.cc_bottom cc_10
.cc_top cc_11,.Lxta.call_labels35
	.ascii	 "../src/demo.xc"
	.byte	0
	.long	455
	.long	.Lxta.call_labels35
.cc_bottom cc_11
.cc_top cc_12,.Lxta.call_labels36
	.ascii	 "../src/demo.xc"
	.byte	0
	.long	459
	.long	.Lxta.call_labels36
.cc_bottom cc_12
.cc_top cc_13,.Lxta.call_labels37
	.ascii	 "../src/demo.xc"
	.byte	0
	.long	464
	.long	.Lxta.call_labels37
.cc_bottom cc_13
.cc_top cc_14,.Lxta.call_labels38
	.ascii	 "../src/demo.xc"
	.byte	0
	.long	471
	.long	.Lxta.call_labels38
.cc_bottom cc_14
.cc_top cc_15,.Lxta.call_labels39
	.ascii	 "../src/demo.xc"
	.byte	0
	.long	480
	.long	.Lxta.call_labels39
.cc_bottom cc_15
.cc_top cc_16,.Lxta.call_labels40
	.ascii	 "../src/demo.xc"
	.byte	0
	.long	481
	.long	.Lxta.call_labels40
.cc_bottom cc_16
.cc_top cc_17,.Lxta.call_labels41
	.ascii	 "../src/demo.xc"
	.byte	0
	.long	484
	.long	.Lxta.call_labels41
.cc_bottom cc_17
.cc_top cc_18,.Lxta.call_labels42
	.ascii	 "../src/demo.xc"
	.byte	0
	.long	502
	.long	.Lxta.call_labels42
.cc_bottom cc_18
.cc_top cc_19,.Lxta.call_labels43
	.ascii	 "../src/demo.xc"
	.byte	0
	.long	511
	.long	.Lxta.call_labels43
.cc_bottom cc_19
.cc_top cc_20,.Lxta.call_labels44
	.ascii	 "../src/demo.xc"
	.byte	0
	.long	518
	.long	.Lxta.call_labels44
.cc_bottom cc_20
.cc_top cc_21,.Lxta.call_labels45
	.ascii	 "../src/demo.xc"
	.byte	0
	.long	526
	.long	.Lxta.call_labels45
.cc_bottom cc_21
.cc_top cc_22,.Lxta.call_labels46
	.ascii	 "../src/demo.xc"
	.byte	0
	.long	527
	.long	.Lxta.call_labels46
.cc_bottom cc_22
.cc_top cc_23,.Lxta.call_labels47
	.ascii	 "../src/demo.xc"
	.byte	0
	.long	528
	.long	.Lxta.call_labels47
.cc_bottom cc_23
.cc_top cc_24,.Lxta.call_labels48
	.ascii	 "../src/demo.xc"
	.byte	0
	.long	531
	.long	.Lxta.call_labels48
.cc_bottom cc_24
.cc_top cc_25,.Lxta.call_labels49
	.ascii	 "../src/demo.xc"
	.byte	0
	.long	533
	.long	.Lxta.call_labels49
.cc_bottom cc_25
.cc_top cc_26,.Lxta.call_labels0
	.ascii	 "../src/demo.xc"
	.byte	0
	.long	546
	.long	.Lxta.call_labels0
.cc_bottom cc_26
.cc_top cc_27,.Lxta.call_labels1
	.ascii	 "../src/demo.xc"
	.byte	0
	.long	554
	.long	.Lxta.call_labels1
.cc_bottom cc_27
.cc_top cc_28,.Lxta.call_labels2
	.ascii	 "../src/demo.xc"
	.byte	0
	.long	561
	.long	.Lxta.call_labels2
.cc_bottom cc_28
.cc_top cc_29,.Lxta.call_labels3
	.ascii	 "../src/demo.xc"
	.byte	0
	.long	563
	.long	.Lxta.call_labels3
.cc_bottom cc_29
.cc_top cc_30,.Lxta.call_labels4
	.ascii	 "../src/demo.xc"
	.byte	0
	.long	565
	.long	.Lxta.call_labels4
.cc_bottom cc_30
.cc_top cc_31,.Lxta.call_labels5
	.ascii	 "../src/demo.xc"
	.byte	0
	.long	571
	.long	.Lxta.call_labels5
.cc_bottom cc_31
.cc_top cc_32,.Lxta.call_labels7
	.ascii	 "../src/demo.xc"
	.byte	0
	.long	573
	.long	.Lxta.call_labels7
.cc_bottom cc_32
.cc_top cc_33,.Lxta.call_labels8
	.ascii	 "../src/demo.xc"
	.byte	0
	.long	574
	.long	.Lxta.call_labels8
.cc_bottom cc_33
.cc_top cc_34,.Lxta.call_labels6
	.ascii	 "../src/demo.xc"
	.byte	0
	.long	578
	.long	.Lxta.call_labels6
.cc_bottom cc_34
.cc_top cc_35,.Lxta.call_labels9
	.ascii	 "../src/demo.xc"
	.byte	0
	.long	580
	.long	.Lxta.call_labels9
.cc_bottom cc_35
.cc_top cc_36,.Lxta.call_labels10
	.ascii	 "../src/demo.xc"
	.byte	0
	.long	581
	.long	.Lxta.call_labels10
.cc_bottom cc_36
.cc_top cc_37,.Lxta.call_labels11
	.ascii	 "../src/demo.xc"
	.byte	0
	.long	594
	.long	.Lxta.call_labels11
.cc_bottom cc_37
.cc_top cc_38,.Lxta.call_labels12
	.ascii	 "../src/demo.xc"
	.byte	0
	.long	602
	.long	.Lxta.call_labels12
.cc_bottom cc_38
.cc_top cc_39,.Lxta.call_labels13
	.ascii	 "../src/demo.xc"
	.byte	0
	.long	609
	.long	.Lxta.call_labels13
.cc_bottom cc_39
.cc_top cc_40,.Lxta.call_labels14
	.ascii	 "../src/demo.xc"
	.byte	0
	.long	611
	.long	.Lxta.call_labels14
.cc_bottom cc_40
.cc_top cc_41,.Lxta.call_labels15
	.ascii	 "../src/demo.xc"
	.byte	0
	.long	613
	.long	.Lxta.call_labels15
.cc_bottom cc_41
.cc_top cc_42,.Lxta.call_labels16
	.ascii	 "../src/demo.xc"
	.byte	0
	.long	619
	.long	.Lxta.call_labels16
.cc_bottom cc_42
.cc_top cc_43,.Lxta.call_labels18
	.ascii	 "../src/demo.xc"
	.byte	0
	.long	621
	.long	.Lxta.call_labels18
.cc_bottom cc_43
.cc_top cc_44,.Lxta.call_labels19
	.ascii	 "../src/demo.xc"
	.byte	0
	.long	622
	.long	.Lxta.call_labels19
.cc_bottom cc_44
.cc_top cc_45,.Lxta.call_labels20
	.ascii	 "../src/demo.xc"
	.byte	0
	.long	623
	.long	.Lxta.call_labels20
.cc_bottom cc_45
.cc_top cc_46,.Lxta.call_labels17
	.ascii	 "../src/demo.xc"
	.byte	0
	.long	626
	.long	.Lxta.call_labels17
.cc_bottom cc_46
.cc_top cc_47,.Lxta.call_labels21
	.ascii	 "../src/demo.xc"
	.byte	0
	.long	628
	.long	.Lxta.call_labels21
.cc_bottom cc_47
.cc_top cc_48,.Lxta.call_labels22
	.ascii	 "../src/demo.xc"
	.byte	0
	.long	629
	.long	.Lxta.call_labels22
.cc_bottom cc_48
.cc_top cc_49,.Lxta.call_labels23
	.ascii	 "../src/demo.xc"
	.byte	0
	.long	630
	.long	.Lxta.call_labels23
.cc_bottom cc_49
.cc_top cc_50,.Lxta.call_labels50
	.ascii	 "../src/demo.xc"
	.byte	0
	.long	647
	.long	.Lxta.call_labels50
.cc_bottom cc_50
.cc_top cc_51,.Lxta.call_labels51
	.ascii	 "../src/demo.xc"
	.byte	0
	.long	648
	.long	.Lxta.call_labels51
.cc_bottom cc_51
.cc_top cc_52,.Lxta.call_labels52
	.ascii	 "../src/demo.xc"
	.byte	0
	.long	649
	.long	.Lxta.call_labels52
.cc_bottom cc_52
.cc_top cc_53,.Lxta.call_labels53
	.ascii	 "../src/demo.xc"
	.byte	0
	.long	650
	.long	.Lxta.call_labels53
.cc_bottom cc_53
.cc_top cc_54,.Lxta.call_labels54
	.ascii	 "../src/demo.xc"
	.byte	0
	.long	651
	.long	.Lxta.call_labels54
.cc_bottom cc_54
.cc_top cc_55,.Lxta.call_labels55
	.ascii	 "../src/demo.xc"
	.byte	0
	.long	673
	.long	.Lxta.call_labels55
.cc_bottom cc_55
.Lentries_end1:
	.section	.xtalabeltable,"",@progbits
.Lentries_start2:
	.long	.Lentries_end3-.Lentries_start2
	.long	0
	.ascii	 "/home/atena/workspace_ethernet_new_replicated/app_ethernet_demo/.build_lite"
	.byte	0
.cc_top cc_56,.Lxtalabel22
	.ascii	 "../src/demo.xc"
	.byte	0
	.long	92
	.long	94
	.long	.Lxtalabel22
.cc_bottom cc_56
.cc_top cc_57,.Lxtalabel23
	.ascii	 "../src/demo.xc"
	.byte	0
	.long	98
	.long	98
	.long	.Lxtalabel23
.cc_bottom cc_57
.cc_top cc_58,.Lxtalabel24
	.ascii	 "../src/demo.xc"
	.byte	0
	.long	99
	.long	99
	.long	.Lxtalabel24
.cc_bottom cc_58
.cc_top cc_59,.Lxtalabel25
	.ascii	 "../src/demo.xc"
	.byte	0
	.long	100
	.long	101
	.long	.Lxtalabel25
.cc_bottom cc_59
.cc_top cc_60,.Lxtalabel26
	.ascii	 "../src/demo.xc"
	.byte	0
	.long	102
	.long	102
	.long	.Lxtalabel26
.cc_bottom cc_60
.cc_top cc_61,.Lxtalabel27
	.ascii	 "../src/demo.xc"
	.byte	0
	.long	103
	.long	105
	.long	.Lxtalabel27
.cc_bottom cc_61
.cc_top cc_62,.Lxtalabel28
	.ascii	 "../src/demo.xc"
	.byte	0
	.long	109
	.long	109
	.long	.Lxtalabel28
.cc_bottom cc_62
.cc_top cc_63,.Lxtalabel29
	.ascii	 "../src/demo.xc"
	.byte	0
	.long	110
	.long	110
	.long	.Lxtalabel29
.cc_bottom cc_63
.cc_top cc_64,.Lxtalabel30
	.ascii	 "../src/demo.xc"
	.byte	0
	.long	111
	.long	112
	.long	.Lxtalabel30
.cc_bottom cc_64
.cc_top cc_65,.Lxtalabel31
	.ascii	 "../src/demo.xc"
	.byte	0
	.long	113
	.long	113
	.long	.Lxtalabel31
.cc_bottom cc_65
.cc_top cc_66,.Lxtalabel32
	.ascii	 "../src/demo.xc"
	.byte	0
	.long	114
	.long	116
	.long	.Lxtalabel32
.cc_bottom cc_66
.cc_top cc_67,.Lxtalabel33
	.ascii	 "../src/demo.xc"
	.byte	0
	.long	120
	.long	120
	.long	.Lxtalabel33
.cc_bottom cc_67
.cc_top cc_68,.Lxtalabel34
	.ascii	 "../src/demo.xc"
	.byte	0
	.long	121
	.long	122
	.long	.Lxtalabel34
.cc_bottom cc_68
.cc_top cc_69,.Lxtalabel36
	.ascii	 "../src/demo.xc"
	.byte	0
	.long	123
	.long	124
	.long	.Lxtalabel36
.cc_bottom cc_69
.cc_top cc_70,.Lxtalabel35
	.ascii	 "../src/demo.xc"
	.byte	0
	.long	125
	.long	127
	.long	.Lxtalabel35
.cc_bottom cc_70
.cc_top cc_71,.Lxtalabel37
	.ascii	 "../src/demo.xc"
	.byte	0
	.long	130
	.long	130
	.long	.Lxtalabel37
.cc_bottom cc_71
.cc_top cc_72,.Lxtalabel38
	.ascii	 "../src/demo.xc"
	.byte	0
	.long	131
	.long	132
	.long	.Lxtalabel38
.cc_bottom cc_72
.cc_top cc_73,.Lxtalabel40
	.ascii	 "../src/demo.xc"
	.byte	0
	.long	133
	.long	134
	.long	.Lxtalabel40
.cc_bottom cc_73
.cc_top cc_74,.Lxtalabel39
	.ascii	 "../src/demo.xc"
	.byte	0
	.long	135
	.long	137
	.long	.Lxtalabel39
.cc_bottom cc_74
.cc_top cc_75,.Lxtalabel41
	.ascii	 "../src/demo.xc"
	.byte	0
	.long	141
	.long	146
	.long	.Lxtalabel41
.cc_bottom cc_75
.cc_top cc_76,.Lxtalabel42
	.ascii	 "../src/demo.xc"
	.byte	0
	.long	147
	.long	151
	.long	.Lxtalabel42
.cc_bottom cc_76
.cc_top cc_77,.Lxtalabel43
	.ascii	 "../src/demo.xc"
	.byte	0
	.long	152
	.long	153
	.long	.Lxtalabel43
.cc_bottom cc_77
.cc_top cc_78,.Lxtalabel44
	.ascii	 "../src/demo.xc"
	.byte	0
	.long	154
	.long	157
	.long	.Lxtalabel44
.cc_bottom cc_78
.cc_top cc_79,.Lxtalabel45
	.ascii	 "../src/demo.xc"
	.byte	0
	.long	158
	.long	164
	.long	.Lxtalabel45
.cc_bottom cc_79
.cc_top cc_80,.Lxtalabel46
	.ascii	 "../src/demo.xc"
	.byte	0
	.long	165
	.long	168
	.long	.Lxtalabel46
.cc_bottom cc_80
.cc_top cc_81,.Lxtalabel47
	.ascii	 "../src/demo.xc"
	.byte	0
	.long	169
	.long	175
	.long	.Lxtalabel47
.cc_bottom cc_81
.cc_top cc_82,.Lxtalabel48
	.ascii	 "../src/demo.xc"
	.byte	0
	.long	176
	.long	178
	.long	.Lxtalabel48
.cc_bottom cc_82
.cc_top cc_83,.Lxtalabel49
	.ascii	 "../src/demo.xc"
	.byte	0
	.long	179
	.long	181
	.long	.Lxtalabel49
.cc_bottom cc_83
.cc_top cc_84,.Lxtalabel50
	.ascii	 "../src/demo.xc"
	.byte	0
	.long	184
	.long	189
	.long	.Lxtalabel50
.cc_bottom cc_84
.cc_top cc_85,.Lxtalabel51
	.ascii	 "../src/demo.xc"
	.byte	0
	.long	190
	.long	194
	.long	.Lxtalabel51
.cc_bottom cc_85
.cc_top cc_86,.Lxtalabel52
	.ascii	 "../src/demo.xc"
	.byte	0
	.long	195
	.long	196
	.long	.Lxtalabel52
.cc_bottom cc_86
.cc_top cc_87,.Lxtalabel53
	.ascii	 "../src/demo.xc"
	.byte	0
	.long	197
	.long	200
	.long	.Lxtalabel53
.cc_bottom cc_87
.cc_top cc_88,.Lxtalabel54
	.ascii	 "../src/demo.xc"
	.byte	0
	.long	201
	.long	207
	.long	.Lxtalabel54
.cc_bottom cc_88
.cc_top cc_89,.Lxtalabel55
	.ascii	 "../src/demo.xc"
	.byte	0
	.long	208
	.long	211
	.long	.Lxtalabel55
.cc_bottom cc_89
.cc_top cc_90,.Lxtalabel56
	.ascii	 "../src/demo.xc"
	.byte	0
	.long	212
	.long	218
	.long	.Lxtalabel56
.cc_bottom cc_90
.cc_top cc_91,.Lxtalabel57
	.ascii	 "../src/demo.xc"
	.byte	0
	.long	219
	.long	221
	.long	.Lxtalabel57
.cc_bottom cc_91
.cc_top cc_92,.Lxtalabel58
	.ascii	 "../src/demo.xc"
	.byte	0
	.long	222
	.long	224
	.long	.Lxtalabel58
.cc_bottom cc_92
.cc_top cc_93,.Lxtalabel59
	.ascii	 "../src/demo.xc"
	.byte	0
	.long	227
	.long	230
	.long	.Lxtalabel59
.cc_bottom cc_93
.cc_top cc_94,.Lxtalabel60
	.ascii	 "../src/demo.xc"
	.byte	0
	.long	231
	.long	231
	.long	.Lxtalabel60
.cc_bottom cc_94
.cc_top cc_95,.Lxtalabel61
	.ascii	 "../src/demo.xc"
	.byte	0
	.long	232
	.long	235
	.long	.Lxtalabel61
.cc_bottom cc_95
.cc_top cc_96,.Lxtalabel62
	.ascii	 "../src/demo.xc"
	.byte	0
	.long	236
	.long	239
	.long	.Lxtalabel62
.cc_bottom cc_96
.cc_top cc_97,.Lxtalabel63
	.ascii	 "../src/demo.xc"
	.byte	0
	.long	240
	.long	240
	.long	.Lxtalabel63
.cc_bottom cc_97
.cc_top cc_98,.Lxtalabel64
	.ascii	 "../src/demo.xc"
	.byte	0
	.long	241
	.long	244
	.long	.Lxtalabel64
.cc_bottom cc_98
.cc_top cc_99,.Lxtalabel65
	.ascii	 "../src/demo.xc"
	.byte	0
	.long	245
	.long	245
	.long	.Lxtalabel65
.cc_bottom cc_99
.cc_top cc_100,.Lxtalabel66
	.ascii	 "../src/demo.xc"
	.byte	0
	.long	246
	.long	249
	.long	.Lxtalabel66
.cc_bottom cc_100
.cc_top cc_101,.Lxtalabel67
	.ascii	 "../src/demo.xc"
	.byte	0
	.long	250
	.long	250
	.long	.Lxtalabel67
.cc_bottom cc_101
.cc_top cc_102,.Lxtalabel68
	.ascii	 "../src/demo.xc"
	.byte	0
	.long	251
	.long	252
	.long	.Lxtalabel68
.cc_bottom cc_102
.cc_top cc_103,.Lxtalabel69
	.ascii	 "../src/demo.xc"
	.byte	0
	.long	253
	.long	256
	.long	.Lxtalabel69
.cc_bottom cc_103
.cc_top cc_104,.Lxtalabel70
	.ascii	 "../src/demo.xc"
	.byte	0
	.long	257
	.long	257
	.long	.Lxtalabel70
.cc_bottom cc_104
.cc_top cc_105,.Lxtalabel71
	.ascii	 "../src/demo.xc"
	.byte	0
	.long	258
	.long	260
	.long	.Lxtalabel71
.cc_bottom cc_105
.cc_top cc_106,.Lxtalabel72
	.ascii	 "../src/demo.xc"
	.byte	0
	.long	263
	.long	266
	.long	.Lxtalabel72
.cc_bottom cc_106
.cc_top cc_107,.Lxtalabel73
	.ascii	 "../src/demo.xc"
	.byte	0
	.long	267
	.long	267
	.long	.Lxtalabel73
.cc_bottom cc_107
.cc_top cc_108,.Lxtalabel74
	.ascii	 "../src/demo.xc"
	.byte	0
	.long	268
	.long	271
	.long	.Lxtalabel74
.cc_bottom cc_108
.cc_top cc_109,.Lxtalabel75
	.ascii	 "../src/demo.xc"
	.byte	0
	.long	272
	.long	275
	.long	.Lxtalabel75
.cc_bottom cc_109
.cc_top cc_110,.Lxtalabel76
	.ascii	 "../src/demo.xc"
	.byte	0
	.long	276
	.long	276
	.long	.Lxtalabel76
.cc_bottom cc_110
.cc_top cc_111,.Lxtalabel77
	.ascii	 "../src/demo.xc"
	.byte	0
	.long	277
	.long	280
	.long	.Lxtalabel77
.cc_bottom cc_111
.cc_top cc_112,.Lxtalabel78
	.ascii	 "../src/demo.xc"
	.byte	0
	.long	281
	.long	281
	.long	.Lxtalabel78
.cc_bottom cc_112
.cc_top cc_113,.Lxtalabel79
	.ascii	 "../src/demo.xc"
	.byte	0
	.long	282
	.long	285
	.long	.Lxtalabel79
.cc_bottom cc_113
.cc_top cc_114,.Lxtalabel80
	.ascii	 "../src/demo.xc"
	.byte	0
	.long	286
	.long	286
	.long	.Lxtalabel80
.cc_bottom cc_114
.cc_top cc_115,.Lxtalabel81
	.ascii	 "../src/demo.xc"
	.byte	0
	.long	287
	.long	288
	.long	.Lxtalabel81
.cc_bottom cc_115
.cc_top cc_116,.Lxtalabel82
	.ascii	 "../src/demo.xc"
	.byte	0
	.long	289
	.long	292
	.long	.Lxtalabel82
.cc_bottom cc_116
.cc_top cc_117,.Lxtalabel83
	.ascii	 "../src/demo.xc"
	.byte	0
	.long	293
	.long	293
	.long	.Lxtalabel83
.cc_bottom cc_117
.cc_top cc_118,.Lxtalabel84
	.ascii	 "../src/demo.xc"
	.byte	0
	.long	294
	.long	296
	.long	.Lxtalabel84
.cc_bottom cc_118
.cc_top cc_119,.Lxtalabel85
	.ascii	 "../src/demo.xc"
	.byte	0
	.long	299
	.long	310
	.long	.Lxtalabel85
.cc_bottom cc_119
.cc_top cc_120,.Lxtalabel86
	.ascii	 "../src/demo.xc"
	.byte	0
	.long	311
	.long	313
	.long	.Lxtalabel86
.cc_bottom cc_120
.cc_top cc_121,.Lxtalabel87
	.ascii	 "../src/demo.xc"
	.byte	0
	.long	314
	.long	314
	.long	.Lxtalabel87
.cc_bottom cc_121
.cc_top cc_122,.Lxtalabel88
	.ascii	 "../src/demo.xc"
	.byte	0
	.long	315
	.long	317
	.long	.Lxtalabel88
.cc_bottom cc_122
.cc_top cc_123,.Lxtalabel89
	.ascii	 "../src/demo.xc"
	.byte	0
	.long	318
	.long	319
	.long	.Lxtalabel89
.cc_bottom cc_123
.cc_top cc_124,.Lxtalabel90
	.ascii	 "../src/demo.xc"
	.byte	0
	.long	320
	.long	322
	.long	.Lxtalabel90
.cc_bottom cc_124
.cc_top cc_125,.Lxtalabel91
	.ascii	 "../src/demo.xc"
	.byte	0
	.long	323
	.long	325
	.long	.Lxtalabel91
.cc_bottom cc_125
.cc_top cc_126,.Lxtalabel92
	.ascii	 "../src/demo.xc"
	.byte	0
	.long	326
	.long	328
	.long	.Lxtalabel92
.cc_bottom cc_126
.cc_top cc_127,.Lxtalabel93
	.ascii	 "../src/demo.xc"
	.byte	0
	.long	329
	.long	330
	.long	.Lxtalabel93
.cc_bottom cc_127
.cc_top cc_128,.Lxtalabel94
	.ascii	 "../src/demo.xc"
	.byte	0
	.long	331
	.long	333
	.long	.Lxtalabel94
.cc_bottom cc_128
.cc_top cc_129,.Lxtalabel95
	.ascii	 "../src/demo.xc"
	.byte	0
	.long	334
	.long	340
	.long	.Lxtalabel95
.cc_bottom cc_129
.cc_top cc_130,.Lxtalabel96
	.ascii	 "../src/demo.xc"
	.byte	0
	.long	341
	.long	343
	.long	.Lxtalabel96
.cc_bottom cc_130
.cc_top cc_131,.Lxtalabel97
	.ascii	 "../src/demo.xc"
	.byte	0
	.long	344
	.long	357
	.long	.Lxtalabel97
.cc_bottom cc_131
.cc_top cc_132,.Lxtalabel98
	.ascii	 "../src/demo.xc"
	.byte	0
	.long	358
	.long	360
	.long	.Lxtalabel98
.cc_bottom cc_132
.cc_top cc_133,.Lxtalabel99
	.ascii	 "../src/demo.xc"
	.byte	0
	.long	361
	.long	365
	.long	.Lxtalabel99
.cc_bottom cc_133
.cc_top cc_134,.Lxtalabel100
	.ascii	 "../src/demo.xc"
	.byte	0
	.long	366
	.long	368
	.long	.Lxtalabel100
.cc_bottom cc_134
.cc_top cc_135,.Lxtalabel101
	.ascii	 "../src/demo.xc"
	.byte	0
	.long	369
	.long	370
	.long	.Lxtalabel101
.cc_bottom cc_135
.cc_top cc_136,.Lxtalabel102
	.ascii	 "../src/demo.xc"
	.byte	0
	.long	373
	.long	384
	.long	.Lxtalabel102
.cc_bottom cc_136
.cc_top cc_137,.Lxtalabel103
	.ascii	 "../src/demo.xc"
	.byte	0
	.long	385
	.long	387
	.long	.Lxtalabel103
.cc_bottom cc_137
.cc_top cc_138,.Lxtalabel104
	.ascii	 "../src/demo.xc"
	.byte	0
	.long	388
	.long	388
	.long	.Lxtalabel104
.cc_bottom cc_138
.cc_top cc_139,.Lxtalabel105
	.ascii	 "../src/demo.xc"
	.byte	0
	.long	389
	.long	391
	.long	.Lxtalabel105
.cc_bottom cc_139
.cc_top cc_140,.Lxtalabel106
	.ascii	 "../src/demo.xc"
	.byte	0
	.long	392
	.long	393
	.long	.Lxtalabel106
.cc_bottom cc_140
.cc_top cc_141,.Lxtalabel107
	.ascii	 "../src/demo.xc"
	.byte	0
	.long	394
	.long	396
	.long	.Lxtalabel107
.cc_bottom cc_141
.cc_top cc_142,.Lxtalabel108
	.ascii	 "../src/demo.xc"
	.byte	0
	.long	397
	.long	399
	.long	.Lxtalabel108
.cc_bottom cc_142
.cc_top cc_143,.Lxtalabel109
	.ascii	 "../src/demo.xc"
	.byte	0
	.long	400
	.long	402
	.long	.Lxtalabel109
.cc_bottom cc_143
.cc_top cc_144,.Lxtalabel110
	.ascii	 "../src/demo.xc"
	.byte	0
	.long	403
	.long	404
	.long	.Lxtalabel110
.cc_bottom cc_144
.cc_top cc_145,.Lxtalabel111
	.ascii	 "../src/demo.xc"
	.byte	0
	.long	405
	.long	407
	.long	.Lxtalabel111
.cc_bottom cc_145
.cc_top cc_146,.Lxtalabel112
	.ascii	 "../src/demo.xc"
	.byte	0
	.long	408
	.long	414
	.long	.Lxtalabel112
.cc_bottom cc_146
.cc_top cc_147,.Lxtalabel113
	.ascii	 "../src/demo.xc"
	.byte	0
	.long	415
	.long	417
	.long	.Lxtalabel113
.cc_bottom cc_147
.cc_top cc_148,.Lxtalabel114
	.ascii	 "../src/demo.xc"
	.byte	0
	.long	418
	.long	431
	.long	.Lxtalabel114
.cc_bottom cc_148
.cc_top cc_149,.Lxtalabel115
	.ascii	 "../src/demo.xc"
	.byte	0
	.long	432
	.long	434
	.long	.Lxtalabel115
.cc_bottom cc_149
.cc_top cc_150,.Lxtalabel116
	.ascii	 "../src/demo.xc"
	.byte	0
	.long	435
	.long	439
	.long	.Lxtalabel116
.cc_bottom cc_150
.cc_top cc_151,.Lxtalabel117
	.ascii	 "../src/demo.xc"
	.byte	0
	.long	440
	.long	442
	.long	.Lxtalabel117
.cc_bottom cc_151
.cc_top cc_152,.Lxtalabel118
	.ascii	 "../src/demo.xc"
	.byte	0
	.long	443
	.long	444
	.long	.Lxtalabel118
.cc_bottom cc_152
.cc_top cc_153,.Lxtalabel119
	.ascii	 "../src/demo.xc"
	.byte	0
	.long	447
	.long	452
	.long	.Lxtalabel119
.cc_bottom cc_153
.cc_top cc_154,.Lxtalabel120
	.ascii	 "../src/demo.xc"
	.byte	0
	.long	453
	.long	453
	.long	.Lxtalabel120
.cc_bottom cc_154
.cc_top cc_155,.Lxtalabel121
	.ascii	 "../src/demo.xc"
	.byte	0
	.long	454
	.long	457
	.long	.Lxtalabel121
.cc_bottom cc_155
.cc_top cc_156,.Lxtalabel122
	.ascii	 "../src/demo.xc"
	.byte	0
	.long	458
	.long	461
	.long	.Lxtalabel122
.cc_bottom cc_156
.cc_top cc_157,.Lxtalabel123
	.ascii	 "../src/demo.xc"
	.byte	0
	.long	462
	.long	462
	.long	.Lxtalabel123
.cc_bottom cc_157
.cc_top cc_158,.Lxtalabel124
	.ascii	 "../src/demo.xc"
	.byte	0
	.long	463
	.long	466
	.long	.Lxtalabel124
.cc_bottom cc_158
.cc_top cc_159,.Lxtalabel125
	.ascii	 "../src/demo.xc"
	.byte	0
	.long	467
	.long	467
	.long	.Lxtalabel125
.cc_bottom cc_159
.cc_top cc_160,.Lxtalabel126
	.ascii	 "../src/demo.xc"
	.byte	0
	.long	468
	.long	469
	.long	.Lxtalabel126
.cc_bottom cc_160
.cc_top cc_161,.Lxtalabel127
	.ascii	 "../src/demo.xc"
	.byte	0
	.long	470
	.long	473
	.long	.Lxtalabel127
.cc_bottom cc_161
.cc_top cc_162,.Lxtalabel128
	.ascii	 "../src/demo.xc"
	.byte	0
	.long	474
	.long	474
	.long	.Lxtalabel128
.cc_bottom cc_162
.cc_top cc_163,.Lxtalabel129
	.ascii	 "../src/demo.xc"
	.byte	0
	.long	475
	.long	477
	.long	.Lxtalabel129
.cc_bottom cc_163
.cc_top cc_164,.Lxtalabel130
	.ascii	 "../src/demo.xc"
	.byte	0
	.long	478
	.long	483
	.long	.Lxtalabel130
.cc_bottom cc_164
.cc_top cc_165,.Lxtalabel131
	.ascii	 "../src/demo.xc"
	.byte	0
	.long	484
	.long	484
	.long	.Lxtalabel131
.cc_bottom cc_165
.cc_top cc_166,.Lxtalabel132
	.ascii	 "../src/demo.xc"
	.byte	0
	.long	485
	.long	488
	.long	.Lxtalabel132
.cc_bottom cc_166
.cc_top cc_167,.Lxtalabel133
	.ascii	 "../src/demo.xc"
	.byte	0
	.long	489
	.long	491
	.long	.Lxtalabel133
.cc_bottom cc_167
.cc_top cc_168,.Lxtalabel134
	.ascii	 "../src/demo.xc"
	.byte	0
	.long	494
	.long	499
	.long	.Lxtalabel134
.cc_bottom cc_168
.cc_top cc_169,.Lxtalabel135
	.ascii	 "../src/demo.xc"
	.byte	0
	.long	500
	.long	500
	.long	.Lxtalabel135
.cc_bottom cc_169
.cc_top cc_170,.Lxtalabel136
	.ascii	 "../src/demo.xc"
	.byte	0
	.long	501
	.long	504
	.long	.Lxtalabel136
.cc_bottom cc_170
.cc_top cc_171,.Lxtalabel137
	.ascii	 "../src/demo.xc"
	.byte	0
	.long	505
	.long	508
	.long	.Lxtalabel137
.cc_bottom cc_171
.cc_top cc_172,.Lxtalabel138
	.ascii	 "../src/demo.xc"
	.byte	0
	.long	509
	.long	509
	.long	.Lxtalabel138
.cc_bottom cc_172
.cc_top cc_173,.Lxtalabel139
	.ascii	 "../src/demo.xc"
	.byte	0
	.long	510
	.long	513
	.long	.Lxtalabel139
.cc_bottom cc_173
.cc_top cc_174,.Lxtalabel140
	.ascii	 "../src/demo.xc"
	.byte	0
	.long	514
	.long	514
	.long	.Lxtalabel140
.cc_bottom cc_174
.cc_top cc_175,.Lxtalabel141
	.ascii	 "../src/demo.xc"
	.byte	0
	.long	515
	.long	516
	.long	.Lxtalabel141
.cc_bottom cc_175
.cc_top cc_176,.Lxtalabel142
	.ascii	 "../src/demo.xc"
	.byte	0
	.long	517
	.long	520
	.long	.Lxtalabel142
.cc_bottom cc_176
.cc_top cc_177,.Lxtalabel143
	.ascii	 "../src/demo.xc"
	.byte	0
	.long	521
	.long	521
	.long	.Lxtalabel143
.cc_bottom cc_177
.cc_top cc_178,.Lxtalabel144
	.ascii	 "../src/demo.xc"
	.byte	0
	.long	522
	.long	524
	.long	.Lxtalabel144
.cc_bottom cc_178
.cc_top cc_179,.Lxtalabel145
	.ascii	 "../src/demo.xc"
	.byte	0
	.long	525
	.long	530
	.long	.Lxtalabel145
.cc_bottom cc_179
.cc_top cc_180,.Lxtalabel146
	.ascii	 "../src/demo.xc"
	.byte	0
	.long	531
	.long	531
	.long	.Lxtalabel146
.cc_bottom cc_180
.cc_top cc_181,.Lxtalabel147
	.ascii	 "../src/demo.xc"
	.byte	0
	.long	532
	.long	535
	.long	.Lxtalabel147
.cc_bottom cc_181
.cc_top cc_182,.Lxtalabel148
	.ascii	 "../src/demo.xc"
	.byte	0
	.long	536
	.long	538
	.long	.Lxtalabel148
.cc_bottom cc_182
.cc_top cc_183,.Lxtalabel0
	.ascii	 "../src/demo.xc"
	.byte	0
	.long	541
	.long	547
	.long	.Lxtalabel0
.cc_bottom cc_183
.cc_top cc_184,.Lxtalabel0
	.ascii	 "../src/demo.xc"
	.byte	0
	.long	554
	.long	557
	.long	.Lxtalabel0
.cc_bottom cc_184
.cc_top cc_185,.Lxtalabel1
	.ascii	 "../src/demo.xc"
	.byte	0
	.long	558
	.long	563
	.long	.Lxtalabel1
.cc_bottom cc_185
.cc_top cc_186,.Lxtalabel2
	.ascii	 "../src/demo.xc"
	.byte	0
	.long	564
	.long	564
	.long	.Lxtalabel2
.cc_bottom cc_186
.cc_top cc_187,.Lxtalabel3
	.ascii	 "../src/demo.xc"
	.byte	0
	.long	565
	.long	565
	.long	.Lxtalabel3
.cc_bottom cc_187
.cc_top cc_188,.Lxtalabel4
	.ascii	 "../src/demo.xc"
	.byte	0
	.long	566
	.long	566
	.long	.Lxtalabel4
.cc_bottom cc_188
.cc_top cc_189,.Lxtalabel5
	.ascii	 "../src/demo.xc"
	.byte	0
	.long	567
	.long	571
	.long	.Lxtalabel5
.cc_bottom cc_189
.cc_top cc_190,.Lxtalabel6
	.ascii	 "../src/demo.xc"
	.byte	0
	.long	572
	.long	576
	.long	.Lxtalabel6
.cc_bottom cc_190
.cc_top cc_191,.Lxtalabel8
	.ascii	 "../src/demo.xc"
	.byte	0
	.long	577
	.long	578
	.long	.Lxtalabel8
.cc_bottom cc_191
.cc_top cc_192,.Lxtalabel9
	.ascii	 "../src/demo.xc"
	.byte	0
	.long	579
	.long	583
	.long	.Lxtalabel9
.cc_bottom cc_192
.cc_top cc_193,.Lxtalabel7
	.ascii	 "../src/demo.xc"
	.byte	0
	.long	584
	.long	585
	.long	.Lxtalabel7
.cc_bottom cc_193
.cc_top cc_194,.Lxtalabel10
	.ascii	 "../src/demo.xc"
	.byte	0
	.long	586
	.long	586
	.long	.Lxtalabel10
.cc_bottom cc_194
.cc_top cc_195,.Lxtalabel11
	.ascii	 "../src/demo.xc"
	.byte	0
	.long	589
	.long	595
	.long	.Lxtalabel11
.cc_bottom cc_195
.cc_top cc_196,.Lxtalabel11
	.ascii	 "../src/demo.xc"
	.byte	0
	.long	602
	.long	605
	.long	.Lxtalabel11
.cc_bottom cc_196
.cc_top cc_197,.Lxtalabel12
	.ascii	 "../src/demo.xc"
	.byte	0
	.long	606
	.long	611
	.long	.Lxtalabel12
.cc_bottom cc_197
.cc_top cc_198,.Lxtalabel13
	.ascii	 "../src/demo.xc"
	.byte	0
	.long	612
	.long	612
	.long	.Lxtalabel13
.cc_bottom cc_198
.cc_top cc_199,.Lxtalabel14
	.ascii	 "../src/demo.xc"
	.byte	0
	.long	613
	.long	613
	.long	.Lxtalabel14
.cc_bottom cc_199
.cc_top cc_200,.Lxtalabel15
	.ascii	 "../src/demo.xc"
	.byte	0
	.long	614
	.long	614
	.long	.Lxtalabel15
.cc_bottom cc_200
.cc_top cc_201,.Lxtalabel16
	.ascii	 "../src/demo.xc"
	.byte	0
	.long	615
	.long	619
	.long	.Lxtalabel16
.cc_bottom cc_201
.cc_top cc_202,.Lxtalabel17
	.ascii	 "../src/demo.xc"
	.byte	0
	.long	620
	.long	624
	.long	.Lxtalabel17
.cc_bottom cc_202
.cc_top cc_203,.Lxtalabel19
	.ascii	 "../src/demo.xc"
	.byte	0
	.long	625
	.long	626
	.long	.Lxtalabel19
.cc_bottom cc_203
.cc_top cc_204,.Lxtalabel20
	.ascii	 "../src/demo.xc"
	.byte	0
	.long	627
	.long	631
	.long	.Lxtalabel20
.cc_bottom cc_204
.cc_top cc_205,.Lxtalabel18
	.ascii	 "../src/demo.xc"
	.byte	0
	.long	632
	.long	633
	.long	.Lxtalabel18
.cc_bottom cc_205
.cc_top cc_206,.Lxtalabel21
	.ascii	 "../src/demo.xc"
	.byte	0
	.long	634
	.long	634
	.long	.Lxtalabel21
.cc_bottom cc_206
.Lentries_end3:
	.section	.xtalooplabeltable,"",@progbits
.Lentries_start4:
	.long	.Lentries_end5-.Lentries_start4
	.long	0
	.ascii	 "/home/atena/workspace_ethernet_new_replicated/app_ethernet_demo/.build_lite"
	.byte	0
.cc_top cc_207,.Lxta.loop_labels2
	.ascii	 "../src/demo.xc"
	.byte	0
	.long	99
	.long	102
	.long	.Lxta.loop_labels2
.cc_bottom cc_207
.cc_top cc_208,.Lxta.loop_labels3
	.ascii	 "../src/demo.xc"
	.byte	0
	.long	110
	.long	113
	.long	.Lxta.loop_labels3
.cc_bottom cc_208
.cc_top cc_209,.Lxta.loop_labels4
	.ascii	 "../src/demo.xc"
	.byte	0
	.long	147
	.long	151
	.long	.Lxta.loop_labels4
.cc_bottom cc_209
.cc_top cc_210,.Lxta.loop_labels5
	.ascii	 "../src/demo.xc"
	.byte	0
	.long	154
	.long	157
	.long	.Lxta.loop_labels5
.cc_bottom cc_210
.cc_top cc_211,.Lxta.loop_labels6
	.ascii	 "../src/demo.xc"
	.byte	0
	.long	165
	.long	168
	.long	.Lxta.loop_labels6
.cc_bottom cc_211
.cc_top cc_212,.Lxta.loop_labels7
	.ascii	 "../src/demo.xc"
	.byte	0
	.long	176
	.long	178
	.long	.Lxta.loop_labels7
.cc_bottom cc_212
.cc_top cc_213,.Lxta.loop_labels8
	.ascii	 "../src/demo.xc"
	.byte	0
	.long	190
	.long	194
	.long	.Lxta.loop_labels8
.cc_bottom cc_213
.cc_top cc_214,.Lxta.loop_labels9
	.ascii	 "../src/demo.xc"
	.byte	0
	.long	197
	.long	200
	.long	.Lxta.loop_labels9
.cc_bottom cc_214
.cc_top cc_215,.Lxta.loop_labels10
	.ascii	 "../src/demo.xc"
	.byte	0
	.long	208
	.long	211
	.long	.Lxta.loop_labels10
.cc_bottom cc_215
.cc_top cc_216,.Lxta.loop_labels11
	.ascii	 "../src/demo.xc"
	.byte	0
	.long	219
	.long	221
	.long	.Lxta.loop_labels11
.cc_bottom cc_216
.cc_top cc_217,.Lxta.loop_labels12
	.ascii	 "../src/demo.xc"
	.byte	0
	.long	251
	.long	257
	.long	.Lxta.loop_labels12
.cc_bottom cc_217
.cc_top cc_218,.Lxta.loop_labels13
	.ascii	 "../src/demo.xc"
	.byte	0
	.long	287
	.long	293
	.long	.Lxta.loop_labels13
.cc_bottom cc_218
.cc_top cc_219,.Lxta.loop_labels14
	.ascii	 "../src/demo.xc"
	.byte	0
	.long	311
	.long	313
	.long	.Lxta.loop_labels14
.cc_bottom cc_219
.cc_top cc_220,.Lxta.loop_labels15
	.ascii	 "../src/demo.xc"
	.byte	0
	.long	315
	.long	317
	.long	.Lxta.loop_labels15
.cc_bottom cc_220
.cc_top cc_221,.Lxta.loop_labels16
	.ascii	 "../src/demo.xc"
	.byte	0
	.long	320
	.long	322
	.long	.Lxta.loop_labels16
.cc_bottom cc_221
.cc_top cc_222,.Lxta.loop_labels17
	.ascii	 "../src/demo.xc"
	.byte	0
	.long	326
	.long	328
	.long	.Lxta.loop_labels17
.cc_bottom cc_222
.cc_top cc_223,.Lxta.loop_labels18
	.ascii	 "../src/demo.xc"
	.byte	0
	.long	331
	.long	333
	.long	.Lxta.loop_labels18
.cc_bottom cc_223
.cc_top cc_224,.Lxta.loop_labels19
	.ascii	 "../src/demo.xc"
	.byte	0
	.long	341
	.long	343
	.long	.Lxta.loop_labels19
.cc_bottom cc_224
.cc_top cc_225,.Lxta.loop_labels20
	.ascii	 "../src/demo.xc"
	.byte	0
	.long	358
	.long	360
	.long	.Lxta.loop_labels20
.cc_bottom cc_225
.cc_top cc_226,.Lxta.loop_labels21
	.ascii	 "../src/demo.xc"
	.byte	0
	.long	366
	.long	368
	.long	.Lxta.loop_labels21
.cc_bottom cc_226
.cc_top cc_227,.Lxta.loop_labels22
	.ascii	 "../src/demo.xc"
	.byte	0
	.long	385
	.long	387
	.long	.Lxta.loop_labels22
.cc_bottom cc_227
.cc_top cc_228,.Lxta.loop_labels23
	.ascii	 "../src/demo.xc"
	.byte	0
	.long	389
	.long	391
	.long	.Lxta.loop_labels23
.cc_bottom cc_228
.cc_top cc_229,.Lxta.loop_labels24
	.ascii	 "../src/demo.xc"
	.byte	0
	.long	394
	.long	396
	.long	.Lxta.loop_labels24
.cc_bottom cc_229
.cc_top cc_230,.Lxta.loop_labels25
	.ascii	 "../src/demo.xc"
	.byte	0
	.long	400
	.long	402
	.long	.Lxta.loop_labels25
.cc_bottom cc_230
.cc_top cc_231,.Lxta.loop_labels26
	.ascii	 "../src/demo.xc"
	.byte	0
	.long	405
	.long	407
	.long	.Lxta.loop_labels26
.cc_bottom cc_231
.cc_top cc_232,.Lxta.loop_labels27
	.ascii	 "../src/demo.xc"
	.byte	0
	.long	415
	.long	417
	.long	.Lxta.loop_labels27
.cc_bottom cc_232
.cc_top cc_233,.Lxta.loop_labels28
	.ascii	 "../src/demo.xc"
	.byte	0
	.long	432
	.long	434
	.long	.Lxta.loop_labels28
.cc_bottom cc_233
.cc_top cc_234,.Lxta.loop_labels29
	.ascii	 "../src/demo.xc"
	.byte	0
	.long	440
	.long	442
	.long	.Lxta.loop_labels29
.cc_bottom cc_234
.cc_top cc_235,.Lxta.loop_labels30
	.ascii	 "../src/demo.xc"
	.byte	0
	.long	468
	.long	474
	.long	.Lxta.loop_labels30
.cc_bottom cc_235
.cc_top cc_236,.Lxta.loop_labels31
	.ascii	 "../src/demo.xc"
	.byte	0
	.long	515
	.long	521
	.long	.Lxta.loop_labels31
.cc_bottom cc_236
.cc_top cc_237,.Lxta.loop_labels0
	.ascii	 "../src/demo.xc"
	.byte	0
	.long	558
	.long	585
	.long	.Lxta.loop_labels0
.cc_bottom cc_237
.cc_top cc_238,.Lxta.loop_labels1
	.ascii	 "../src/demo.xc"
	.byte	0
	.long	606
	.long	633
	.long	.Lxta.loop_labels1
.cc_bottom cc_238
.Lentries_end5:
